Component: ARM Compiler 5.06 update 5 (build 528) Tool: armlink [4d35e2]

==============================================================================

Section Cross References

    main.o(i.GPS_task) refers to os_sem.o(i.OSSemPend) for OSSemPend
    main.o(i.GPS_task) refers to gps.o(i.GPRMC_DAT) for GPRMC_DAT
    main.o(i.GPS_task) refers to gps.o(i.GPGSV_DAT) for GPGSV_DAT
    main.o(i.GPS_task) refers to gps.o(i.GPGSA_DAT) for GPGSA_DAT
    main.o(i.GPS_task) refers to gps.o(i.GPGGA_DAT) for GPGGA_DAT
    main.o(i.GPS_task) refers to lcd.o(i.LCD_ShowxNum) for LCD_ShowxNum
    main.o(i.GPS_task) refers to stm32f7xx_hal_uart.o(i.HAL_UART_Transmit) for HAL_UART_Transmit
    main.o(i.GPS_task) refers to stm32f7xx_hal_gpio.o(i.HAL_GPIO_TogglePin) for HAL_GPIO_TogglePin
    main.o(i.GPS_task) refers to main.o(.bss) for GPS_SEM
    main.o(i.GPS_task) refers to usart.o(.bss) for RxBuffer4
    main.o(i.GPS_task) refers to gps.o(.data) for Year
    main.o(i.GPS_task) refers to usart.o(.data) for Rec_Len
    main.o(i.main) refers to sys.o(i.Cache_Enable) for Cache_Enable
    main.o(i.main) refers to stm32f7xx_hal.o(i.HAL_Init) for HAL_Init
    main.o(i.main) refers to sys.o(i.Stm32_Clock_Init) for Stm32_Clock_Init
    main.o(i.main) refers to delay.o(i.delay_init) for delay_init
    main.o(i.main) refers to led.o(i.LED_Init) for LED_Init
    main.o(i.main) refers to sdram.o(i.SDRAM_Init) for SDRAM_Init
    main.o(i.main) refers to lcd.o(i.LCD_Init) for LCD_Init
    main.o(i.main) refers to usart.o(i.uart_init) for uart_init
    main.o(i.main) refers to lcd.o(i.LCD_ShowString) for LCD_ShowString
    main.o(i.main) refers to os_core.o(i.OSInit) for OSInit
    main.o(i.main) refers to cpu_a.o(.text) for CPU_SR_Save
    main.o(i.main) refers to cpu_core.o(i.CPU_IntDisMeasStart) for CPU_IntDisMeasStart
    main.o(i.main) refers to os_task.o(i.OSTaskCreate) for OSTaskCreate
    main.o(i.main) refers to cpu_core.o(i.CPU_IntDisMeasStop) for CPU_IntDisMeasStop
    main.o(i.main) refers to os_core.o(i.OSStart) for OSStart
    main.o(i.main) refers to lcd.o(.data) for POINT_COLOR
    main.o(i.main) refers to main.o(.bss) for START_TASK_STK
    main.o(i.main) refers to main.o(i.start_task) for start_task
    main.o(i.start_task) refers to cpu_core.o(i.CPU_Init) for CPU_Init
    main.o(i.start_task) refers to os_stat.o(i.OSStatTaskCPUUsageInit) for OSStatTaskCPUUsageInit
    main.o(i.start_task) refers to cpu_core.o(i.CPU_IntDisMeasMaxCurReset) for CPU_IntDisMeasMaxCurReset
    main.o(i.start_task) refers to cpu_a.o(.text) for CPU_SR_Save
    main.o(i.start_task) refers to cpu_core.o(i.CPU_IntDisMeasStart) for CPU_IntDisMeasStart
    main.o(i.start_task) refers to os_sem.o(i.OSSemCreate) for OSSemCreate
    main.o(i.start_task) refers to os_task.o(i.OSTaskCreate) for OSTaskCreate
    main.o(i.start_task) refers to cpu_core.o(i.CPU_IntDisMeasStop) for CPU_IntDisMeasStop
    main.o(i.start_task) refers to os_task.o(i.OSTaskDel) for OSTaskDel
    main.o(i.start_task) refers to main.o(.bss) for GPS_SEM
    main.o(i.start_task) refers to main.o(i.GPS_task) for GPS_task
    main.o(i.start_task) refers to main.o(i.task2_task) for task2_task
    main.o(i.task2_task) refers to stm32f7xx_hal_gpio.o(i.HAL_GPIO_TogglePin) for HAL_GPIO_TogglePin
    main.o(i.task2_task) refers to lcd.o(i.LCD_ShowString) for LCD_ShowString
    main.o(i.task2_task) refers to os_time.o(i.OSTimeDlyHMSM) for OSTimeDlyHMSM
    main.o(i.task2_task) refers to usart.o(.bss) for TxBuffer3
    system_stm32f7xx.o(i.SystemCoreClockUpdate) refers to system_stm32f7xx.o(.data) for SystemCoreClock
    system_stm32f7xx.o(i.SystemCoreClockUpdate) refers to system_stm32f7xx.o(.constdata) for AHBPrescTable
    startup_stm32f767xx.o(STACK) refers (Special) to heapauxi.o(.text) for __use_two_region_memory
    startup_stm32f767xx.o(HEAP) refers (Special) to heapauxi.o(.text) for __use_two_region_memory
    startup_stm32f767xx.o(RESET) refers (Special) to heapauxi.o(.text) for __use_two_region_memory
    startup_stm32f767xx.o(RESET) refers to startup_stm32f767xx.o(STACK) for __initial_sp
    startup_stm32f767xx.o(RESET) refers to startup_stm32f767xx.o(.text) for Reset_Handler
    startup_stm32f767xx.o(RESET) refers to stm32f7xx_it.o(i.NMI_Handler) for NMI_Handler
    startup_stm32f767xx.o(RESET) refers to stm32f7xx_it.o(i.HardFault_Handler) for HardFault_Handler
    startup_stm32f767xx.o(RESET) refers to stm32f7xx_it.o(i.BusFault_Handler) for BusFault_Handler
    startup_stm32f767xx.o(RESET) refers to stm32f7xx_it.o(i.UsageFault_Handler) for UsageFault_Handler
    startup_stm32f767xx.o(RESET) refers to stm32f7xx_it.o(i.SVC_Handler) for SVC_Handler
    startup_stm32f767xx.o(RESET) refers to stm32f7xx_it.o(i.DebugMon_Handler) for DebugMon_Handler
    startup_stm32f767xx.o(RESET) refers to os_cpu_a.o(CODE) for PendSV_Handler
    startup_stm32f767xx.o(RESET) refers to delay.o(i.SysTick_Handler) for SysTick_Handler
    startup_stm32f767xx.o(RESET) refers to usart.o(i.USART2_IRQHandler) for USART2_IRQHandler
    startup_stm32f767xx.o(RESET) refers to usart.o(i.UART7_IRQHandler) for UART7_IRQHandler
    startup_stm32f767xx.o(.text) refers (Special) to heapauxi.o(.text) for __use_two_region_memory
    startup_stm32f767xx.o(.text) refers to system_stm32f7xx.o(i.SystemInit) for SystemInit
    startup_stm32f767xx.o(.text) refers to __main.o(!!!main) for __main
    startup_stm32f767xx.o(.text) refers to startup_stm32f767xx.o(HEAP) for Heap_Mem
    startup_stm32f767xx.o(.text) refers to startup_stm32f767xx.o(STACK) for Stack_Mem
    stm32f7xx_hal.o(i.HAL_DeInit) refers to stm32f7xx_hal.o(i.HAL_MspDeInit) for HAL_MspDeInit
    stm32f7xx_hal.o(i.HAL_Delay) refers to stm32f7xx_hal.o(i.HAL_GetTick) for HAL_GetTick
    stm32f7xx_hal.o(i.HAL_GetTick) refers to stm32f7xx_hal.o(.data) for uwTick
    stm32f7xx_hal.o(i.HAL_IncTick) refers to stm32f7xx_hal.o(.data) for uwTick
    stm32f7xx_hal.o(i.HAL_Init) refers to stm32f7xx_hal_cortex.o(i.HAL_NVIC_SetPriorityGrouping) for HAL_NVIC_SetPriorityGrouping
    stm32f7xx_hal.o(i.HAL_Init) refers to stm32f7xx_hal.o(i.HAL_InitTick) for HAL_InitTick
    stm32f7xx_hal.o(i.HAL_Init) refers to stm32f7xx_hal.o(i.HAL_MspInit) for HAL_MspInit
    stm32f7xx_hal.o(i.HAL_InitTick) refers to stm32f7xx_hal_cortex.o(i.HAL_SYSTICK_Config) for HAL_SYSTICK_Config
    stm32f7xx_hal.o(i.HAL_InitTick) refers to stm32f7xx_hal_cortex.o(i.HAL_NVIC_SetPriority) for HAL_NVIC_SetPriority
    stm32f7xx_hal.o(i.HAL_InitTick) refers to system_stm32f7xx.o(.data) for SystemCoreClock
    stm32f7xx_hal_cortex.o(i.HAL_NVIC_GetPriorityGrouping) refers to stm32f7xx_hal_cortex.o(i.NVIC_GetPriorityGrouping) for NVIC_GetPriorityGrouping
    stm32f7xx_hal_cortex.o(i.HAL_NVIC_SetPriority) refers to stm32f7xx_hal_cortex.o(i.NVIC_GetPriorityGrouping) for NVIC_GetPriorityGrouping
    stm32f7xx_hal_cortex.o(i.HAL_NVIC_SetPriority) refers to stm32f7xx_hal_cortex.o(i.NVIC_SetPriority) for NVIC_SetPriority
    stm32f7xx_hal_cortex.o(i.HAL_SYSTICK_Config) refers to stm32f7xx_hal_cortex.o(i.NVIC_SetPriority) for NVIC_SetPriority
    stm32f7xx_hal_cortex.o(i.HAL_SYSTICK_IRQHandler) refers to stm32f7xx_hal_cortex.o(i.HAL_SYSTICK_Callback) for HAL_SYSTICK_Callback
    stm32f7xx_hal_dma.o(i.DMA_CalcBaseAndBitshift) refers to stm32f7xx_hal_dma.o(.constdata) for flagBitshiftOffset
    stm32f7xx_hal_dma.o(i.HAL_DMA_Abort) refers to stm32f7xx_hal.o(i.HAL_GetTick) for HAL_GetTick
    stm32f7xx_hal_dma.o(i.HAL_DMA_DeInit) refers to stm32f7xx_hal_dma.o(i.DMA_CalcBaseAndBitshift) for DMA_CalcBaseAndBitshift
    stm32f7xx_hal_dma.o(i.HAL_DMA_IRQHandler) refers to system_stm32f7xx.o(.data) for SystemCoreClock
    stm32f7xx_hal_dma.o(i.HAL_DMA_Init) refers to stm32f7xx_hal.o(i.HAL_GetTick) for HAL_GetTick
    stm32f7xx_hal_dma.o(i.HAL_DMA_Init) refers to stm32f7xx_hal_dma.o(i.DMA_CheckFifoParam) for DMA_CheckFifoParam
    stm32f7xx_hal_dma.o(i.HAL_DMA_Init) refers to stm32f7xx_hal_dma.o(i.DMA_CalcBaseAndBitshift) for DMA_CalcBaseAndBitshift
    stm32f7xx_hal_dma.o(i.HAL_DMA_PollForTransfer) refers to stm32f7xx_hal.o(i.HAL_GetTick) for HAL_GetTick
    stm32f7xx_hal_dma.o(i.HAL_DMA_PollForTransfer) refers to stm32f7xx_hal_dma.o(i.HAL_DMA_Abort) for HAL_DMA_Abort
    stm32f7xx_hal_dma.o(i.HAL_DMA_Start) refers to stm32f7xx_hal_dma.o(i.DMA_SetConfig) for DMA_SetConfig
    stm32f7xx_hal_dma.o(i.HAL_DMA_Start_IT) refers to stm32f7xx_hal_dma.o(i.DMA_SetConfig) for DMA_SetConfig
    stm32f7xx_hal_dma_ex.o(i.HAL_DMAEx_MultiBufferStart) refers to stm32f7xx_hal_dma_ex.o(i.DMA_MultiBufferSetConfig) for DMA_MultiBufferSetConfig
    stm32f7xx_hal_dma_ex.o(i.HAL_DMAEx_MultiBufferStart_IT) refers to stm32f7xx_hal_dma_ex.o(i.DMA_MultiBufferSetConfig) for DMA_MultiBufferSetConfig
    stm32f7xx_hal_gpio.o(i.HAL_GPIO_EXTI_IRQHandler) refers to stm32f7xx_hal_gpio.o(i.HAL_GPIO_EXTI_Callback) for HAL_GPIO_EXTI_Callback
    stm32f7xx_hal_pwr.o(i.HAL_PWR_PVD_IRQHandler) refers to stm32f7xx_hal_pwr.o(i.HAL_PWR_PVDCallback) for HAL_PWR_PVDCallback
    stm32f7xx_hal_pwr_ex.o(i.HAL_PWREx_ControlVoltageScaling) refers to stm32f7xx_hal.o(i.HAL_GetTick) for HAL_GetTick
    stm32f7xx_hal_pwr_ex.o(i.HAL_PWREx_DisableBkUpReg) refers to stm32f7xx_hal.o(i.HAL_GetTick) for HAL_GetTick
    stm32f7xx_hal_pwr_ex.o(i.HAL_PWREx_DisableOverDrive) refers to stm32f7xx_hal.o(i.HAL_GetTick) for HAL_GetTick
    stm32f7xx_hal_pwr_ex.o(i.HAL_PWREx_EnableBkUpReg) refers to stm32f7xx_hal.o(i.HAL_GetTick) for HAL_GetTick
    stm32f7xx_hal_pwr_ex.o(i.HAL_PWREx_EnableOverDrive) refers to stm32f7xx_hal.o(i.HAL_GetTick) for HAL_GetTick
    stm32f7xx_hal_pwr_ex.o(i.HAL_PWREx_EnterUnderDriveSTOPMode) refers to stm32f7xx_hal.o(i.HAL_GetTick) for HAL_GetTick
    stm32f7xx_hal_rcc.o(i.HAL_RCC_ClockConfig) refers to stm32f7xx_hal.o(i.HAL_GetTick) for HAL_GetTick
    stm32f7xx_hal_rcc.o(i.HAL_RCC_ClockConfig) refers to stm32f7xx_hal_rcc.o(i.HAL_RCC_GetSysClockFreq) for HAL_RCC_GetSysClockFreq
    stm32f7xx_hal_rcc.o(i.HAL_RCC_ClockConfig) refers to stm32f7xx_hal.o(i.HAL_InitTick) for HAL_InitTick
    stm32f7xx_hal_rcc.o(i.HAL_RCC_ClockConfig) refers to system_stm32f7xx.o(.constdata) for AHBPrescTable
    stm32f7xx_hal_rcc.o(i.HAL_RCC_ClockConfig) refers to system_stm32f7xx.o(.data) for SystemCoreClock
    stm32f7xx_hal_rcc.o(i.HAL_RCC_DeInit) refers to system_stm32f7xx.o(.data) for SystemCoreClock
    stm32f7xx_hal_rcc.o(i.HAL_RCC_GetHCLKFreq) refers to system_stm32f7xx.o(.data) for SystemCoreClock
    stm32f7xx_hal_rcc.o(i.HAL_RCC_GetPCLK1Freq) refers to stm32f7xx_hal_rcc.o(i.HAL_RCC_GetHCLKFreq) for HAL_RCC_GetHCLKFreq
    stm32f7xx_hal_rcc.o(i.HAL_RCC_GetPCLK1Freq) refers to system_stm32f7xx.o(.constdata) for APBPrescTable
    stm32f7xx_hal_rcc.o(i.HAL_RCC_GetPCLK2Freq) refers to stm32f7xx_hal_rcc.o(i.HAL_RCC_GetHCLKFreq) for HAL_RCC_GetHCLKFreq
    stm32f7xx_hal_rcc.o(i.HAL_RCC_GetPCLK2Freq) refers to system_stm32f7xx.o(.constdata) for APBPrescTable
    stm32f7xx_hal_rcc.o(i.HAL_RCC_MCOConfig) refers to stm32f7xx_hal_gpio.o(i.HAL_GPIO_Init) for HAL_GPIO_Init
    stm32f7xx_hal_rcc.o(i.HAL_RCC_NMI_IRQHandler) refers to stm32f7xx_hal_rcc.o(i.HAL_RCC_CSSCallback) for HAL_RCC_CSSCallback
    stm32f7xx_hal_rcc.o(i.HAL_RCC_OscConfig) refers to stm32f7xx_hal.o(i.HAL_GetTick) for HAL_GetTick
    stm32f7xx_hal_rcc_ex.o(i.HAL_RCCEx_PeriphCLKConfig) refers to stm32f7xx_hal.o(i.HAL_GetTick) for HAL_GetTick
    stm32f7xx_hal_rcc_ex.o(i.HAL_RCC_OscConfig) refers to stm32f7xx_hal.o(i.HAL_GetTick) for HAL_GetTick
    stm32f7xx_hal_uart.o(i.HAL_HalfDuplex_Init) refers to usart.o(i.HAL_UART_MspInit) for HAL_UART_MspInit
    stm32f7xx_hal_uart.o(i.HAL_HalfDuplex_Init) refers to stm32f7xx_hal_uart.o(i.UART_SetConfig) for UART_SetConfig
    stm32f7xx_hal_uart.o(i.HAL_HalfDuplex_Init) refers to stm32f7xx_hal_uart.o(i.UART_AdvFeatureConfig) for UART_AdvFeatureConfig
    stm32f7xx_hal_uart.o(i.HAL_HalfDuplex_Init) refers to stm32f7xx_hal_uart.o(i.UART_CheckIdleState) for UART_CheckIdleState
    stm32f7xx_hal_uart.o(i.HAL_LIN_Init) refers to usart.o(i.HAL_UART_MspInit) for HAL_UART_MspInit
    stm32f7xx_hal_uart.o(i.HAL_LIN_Init) refers to stm32f7xx_hal_uart.o(i.UART_SetConfig) for UART_SetConfig
    stm32f7xx_hal_uart.o(i.HAL_LIN_Init) refers to stm32f7xx_hal_uart.o(i.UART_AdvFeatureConfig) for UART_AdvFeatureConfig
    stm32f7xx_hal_uart.o(i.HAL_LIN_Init) refers to stm32f7xx_hal_uart.o(i.UART_CheckIdleState) for UART_CheckIdleState
    stm32f7xx_hal_uart.o(i.HAL_MultiProcessorEx_AddressLength_Set) refers to stm32f7xx_hal_uart.o(i.UART_CheckIdleState) for UART_CheckIdleState
    stm32f7xx_hal_uart.o(i.HAL_MultiProcessor_DisableMuteMode) refers to stm32f7xx_hal_uart.o(i.UART_CheckIdleState) for UART_CheckIdleState
    stm32f7xx_hal_uart.o(i.HAL_MultiProcessor_EnableMuteMode) refers to stm32f7xx_hal_uart.o(i.UART_CheckIdleState) for UART_CheckIdleState
    stm32f7xx_hal_uart.o(i.HAL_MultiProcessor_Init) refers to usart.o(i.HAL_UART_MspInit) for HAL_UART_MspInit
    stm32f7xx_hal_uart.o(i.HAL_MultiProcessor_Init) refers to stm32f7xx_hal_uart.o(i.UART_SetConfig) for UART_SetConfig
    stm32f7xx_hal_uart.o(i.HAL_MultiProcessor_Init) refers to stm32f7xx_hal_uart.o(i.UART_AdvFeatureConfig) for UART_AdvFeatureConfig
    stm32f7xx_hal_uart.o(i.HAL_MultiProcessor_Init) refers to stm32f7xx_hal_uart.o(i.UART_CheckIdleState) for UART_CheckIdleState
    stm32f7xx_hal_uart.o(i.HAL_RS485Ex_Init) refers to usart.o(i.HAL_UART_MspInit) for HAL_UART_MspInit
    stm32f7xx_hal_uart.o(i.HAL_RS485Ex_Init) refers to stm32f7xx_hal_uart.o(i.UART_SetConfig) for UART_SetConfig
    stm32f7xx_hal_uart.o(i.HAL_RS485Ex_Init) refers to stm32f7xx_hal_uart.o(i.UART_AdvFeatureConfig) for UART_AdvFeatureConfig
    stm32f7xx_hal_uart.o(i.HAL_RS485Ex_Init) refers to stm32f7xx_hal_uart.o(i.UART_CheckIdleState) for UART_CheckIdleState
    stm32f7xx_hal_uart.o(i.HAL_UART_DMAStop) refers to stm32f7xx_hal_dma.o(i.HAL_DMA_Abort) for HAL_DMA_Abort
    stm32f7xx_hal_uart.o(i.HAL_UART_DMAStop) refers to stm32f7xx_hal_uart.o(i.UART_EndTxTransfer) for UART_EndTxTransfer
    stm32f7xx_hal_uart.o(i.HAL_UART_DMAStop) refers to stm32f7xx_hal_uart.o(i.UART_EndRxTransfer) for UART_EndRxTransfer
    stm32f7xx_hal_uart.o(i.HAL_UART_DeInit) refers to stm32f7xx_hal_uart.o(i.HAL_UART_MspDeInit) for HAL_UART_MspDeInit
    stm32f7xx_hal_uart.o(i.HAL_UART_IRQHandler) refers to stm32f7xx_hal_uart.o(i.UART_Receive_IT) for UART_Receive_IT
    stm32f7xx_hal_uart.o(i.HAL_UART_IRQHandler) refers to stm32f7xx_hal_uart.o(i.UART_EndRxTransfer) for UART_EndRxTransfer
    stm32f7xx_hal_uart.o(i.HAL_UART_IRQHandler) refers to stm32f7xx_hal_dma.o(i.HAL_DMA_Abort_IT) for HAL_DMA_Abort_IT
    stm32f7xx_hal_uart.o(i.HAL_UART_IRQHandler) refers to stm32f7xx_hal_uart.o(i.HAL_UART_ErrorCallback) for HAL_UART_ErrorCallback
    stm32f7xx_hal_uart.o(i.HAL_UART_IRQHandler) refers to stm32f7xx_hal_uart.o(i.UART_Transmit_IT) for UART_Transmit_IT
    stm32f7xx_hal_uart.o(i.HAL_UART_IRQHandler) refers to stm32f7xx_hal_uart.o(i.UART_EndTransmit_IT) for UART_EndTransmit_IT
    stm32f7xx_hal_uart.o(i.HAL_UART_IRQHandler) refers to stm32f7xx_hal_uart.o(i.UART_DMAAbortOnError) for UART_DMAAbortOnError
    stm32f7xx_hal_uart.o(i.HAL_UART_Init) refers to usart.o(i.HAL_UART_MspInit) for HAL_UART_MspInit
    stm32f7xx_hal_uart.o(i.HAL_UART_Init) refers to stm32f7xx_hal_uart.o(i.UART_SetConfig) for UART_SetConfig
    stm32f7xx_hal_uart.o(i.HAL_UART_Init) refers to stm32f7xx_hal_uart.o(i.UART_AdvFeatureConfig) for UART_AdvFeatureConfig
    stm32f7xx_hal_uart.o(i.HAL_UART_Init) refers to stm32f7xx_hal_uart.o(i.UART_CheckIdleState) for UART_CheckIdleState
    stm32f7xx_hal_uart.o(i.HAL_UART_Receive) refers to stm32f7xx_hal.o(i.HAL_GetTick) for HAL_GetTick
    stm32f7xx_hal_uart.o(i.HAL_UART_Receive) refers to stm32f7xx_hal_uart.o(i.UART_WaitOnFlagUntilTimeout) for UART_WaitOnFlagUntilTimeout
    stm32f7xx_hal_uart.o(i.HAL_UART_Receive_DMA) refers to stm32f7xx_hal_dma.o(i.HAL_DMA_Start_IT) for HAL_DMA_Start_IT
    stm32f7xx_hal_uart.o(i.HAL_UART_Receive_DMA) refers to stm32f7xx_hal_uart.o(i.UART_DMAReceiveCplt) for UART_DMAReceiveCplt
    stm32f7xx_hal_uart.o(i.HAL_UART_Receive_DMA) refers to stm32f7xx_hal_uart.o(i.UART_DMARxHalfCplt) for UART_DMARxHalfCplt
    stm32f7xx_hal_uart.o(i.HAL_UART_Receive_DMA) refers to stm32f7xx_hal_uart.o(i.UART_DMAError) for UART_DMAError
    stm32f7xx_hal_uart.o(i.HAL_UART_Transmit) refers to stm32f7xx_hal.o(i.HAL_GetTick) for HAL_GetTick
    stm32f7xx_hal_uart.o(i.HAL_UART_Transmit) refers to stm32f7xx_hal_uart.o(i.UART_WaitOnFlagUntilTimeout) for UART_WaitOnFlagUntilTimeout
    stm32f7xx_hal_uart.o(i.HAL_UART_Transmit_DMA) refers to stm32f7xx_hal_dma.o(i.HAL_DMA_Start_IT) for HAL_DMA_Start_IT
    stm32f7xx_hal_uart.o(i.HAL_UART_Transmit_DMA) refers to stm32f7xx_hal_uart.o(i.UART_DMATransmitCplt) for UART_DMATransmitCplt
    stm32f7xx_hal_uart.o(i.HAL_UART_Transmit_DMA) refers to stm32f7xx_hal_uart.o(i.UART_DMATxHalfCplt) for UART_DMATxHalfCplt
    stm32f7xx_hal_uart.o(i.HAL_UART_Transmit_DMA) refers to stm32f7xx_hal_uart.o(i.UART_DMAError) for UART_DMAError
    stm32f7xx_hal_uart.o(i.UART_CheckIdleState) refers to stm32f7xx_hal.o(i.HAL_GetTick) for HAL_GetTick
    stm32f7xx_hal_uart.o(i.UART_CheckIdleState) refers to stm32f7xx_hal_uart.o(i.UART_WaitOnFlagUntilTimeout) for UART_WaitOnFlagUntilTimeout
    stm32f7xx_hal_uart.o(i.UART_DMAAbortOnError) refers to stm32f7xx_hal_uart.o(i.HAL_UART_ErrorCallback) for HAL_UART_ErrorCallback
    stm32f7xx_hal_uart.o(i.UART_DMAError) refers to stm32f7xx_hal_uart.o(i.UART_EndTxTransfer) for UART_EndTxTransfer
    stm32f7xx_hal_uart.o(i.UART_DMAError) refers to stm32f7xx_hal_uart.o(i.UART_EndRxTransfer) for UART_EndRxTransfer
    stm32f7xx_hal_uart.o(i.UART_DMAError) refers to stm32f7xx_hal_uart.o(i.HAL_UART_ErrorCallback) for HAL_UART_ErrorCallback
    stm32f7xx_hal_uart.o(i.UART_DMAReceiveCplt) refers to stm32f7xx_hal_uart.o(i.HAL_UART_RxCpltCallback) for HAL_UART_RxCpltCallback
    stm32f7xx_hal_uart.o(i.UART_DMARxHalfCplt) refers to stm32f7xx_hal_uart.o(i.HAL_UART_RxHalfCpltCallback) for HAL_UART_RxHalfCpltCallback
    stm32f7xx_hal_uart.o(i.UART_DMATransmitCplt) refers to stm32f7xx_hal_uart.o(i.HAL_UART_TxCpltCallback) for HAL_UART_TxCpltCallback
    stm32f7xx_hal_uart.o(i.UART_DMATxHalfCplt) refers to stm32f7xx_hal_uart.o(i.HAL_UART_TxHalfCpltCallback) for HAL_UART_TxHalfCpltCallback
    stm32f7xx_hal_uart.o(i.UART_EndTransmit_IT) refers to stm32f7xx_hal_uart.o(i.HAL_UART_TxCpltCallback) for HAL_UART_TxCpltCallback
    stm32f7xx_hal_uart.o(i.UART_Receive_IT) refers to stm32f7xx_hal_uart.o(i.HAL_UART_RxCpltCallback) for HAL_UART_RxCpltCallback
    stm32f7xx_hal_uart.o(i.UART_SetConfig) refers to stm32f7xx_hal_rcc.o(i.HAL_RCC_GetPCLK1Freq) for HAL_RCC_GetPCLK1Freq
    stm32f7xx_hal_uart.o(i.UART_SetConfig) refers to stm32f7xx_hal_rcc.o(i.HAL_RCC_GetPCLK2Freq) for HAL_RCC_GetPCLK2Freq
    stm32f7xx_hal_uart.o(i.UART_SetConfig) refers to stm32f7xx_hal_rcc.o(i.HAL_RCC_GetSysClockFreq) for HAL_RCC_GetSysClockFreq
    stm32f7xx_hal_uart.o(i.UART_WaitOnFlagUntilTimeout) refers to stm32f7xx_hal.o(i.HAL_GetTick) for HAL_GetTick
    stm32f7xx_hal_usart.o(i.HAL_USART_DMAStop) refers to stm32f7xx_hal_usart.o(i.USART_EndTxTransfer) for USART_EndTxTransfer
    stm32f7xx_hal_usart.o(i.HAL_USART_DMAStop) refers to stm32f7xx_hal_dma.o(i.HAL_DMA_Abort) for HAL_DMA_Abort
    stm32f7xx_hal_usart.o(i.HAL_USART_DMAStop) refers to stm32f7xx_hal_usart.o(i.USART_EndRxTransfer) for USART_EndRxTransfer
    stm32f7xx_hal_usart.o(i.HAL_USART_DeInit) refers to stm32f7xx_hal_usart.o(i.HAL_USART_MspDeInit) for HAL_USART_MspDeInit
    stm32f7xx_hal_usart.o(i.HAL_USART_IRQHandler) refers to stm32f7xx_hal_usart.o(i.USART_Receive_IT) for USART_Receive_IT
    stm32f7xx_hal_usart.o(i.HAL_USART_IRQHandler) refers to stm32f7xx_hal_usart.o(i.USART_TransmitReceive_IT) for USART_TransmitReceive_IT
    stm32f7xx_hal_usart.o(i.HAL_USART_IRQHandler) refers to stm32f7xx_hal_usart.o(i.USART_EndRxTransfer) for USART_EndRxTransfer
    stm32f7xx_hal_usart.o(i.HAL_USART_IRQHandler) refers to stm32f7xx_hal_dma.o(i.HAL_DMA_Abort_IT) for HAL_DMA_Abort_IT
    stm32f7xx_hal_usart.o(i.HAL_USART_IRQHandler) refers to stm32f7xx_hal_usart.o(i.HAL_USART_ErrorCallback) for HAL_USART_ErrorCallback
    stm32f7xx_hal_usart.o(i.HAL_USART_IRQHandler) refers to stm32f7xx_hal_usart.o(i.USART_Transmit_IT) for USART_Transmit_IT
    stm32f7xx_hal_usart.o(i.HAL_USART_IRQHandler) refers to stm32f7xx_hal_usart.o(i.USART_EndTransmit_IT) for USART_EndTransmit_IT
    stm32f7xx_hal_usart.o(i.HAL_USART_IRQHandler) refers to stm32f7xx_hal_usart.o(i.USART_DMAAbortOnError) for USART_DMAAbortOnError
    stm32f7xx_hal_usart.o(i.HAL_USART_Init) refers to stm32f7xx_hal_usart.o(i.HAL_USART_MspInit) for HAL_USART_MspInit
    stm32f7xx_hal_usart.o(i.HAL_USART_Init) refers to stm32f7xx_hal_usart.o(i.USART_SetConfig) for USART_SetConfig
    stm32f7xx_hal_usart.o(i.HAL_USART_Init) refers to stm32f7xx_hal_usart.o(i.USART_CheckIdleState) for USART_CheckIdleState
    stm32f7xx_hal_usart.o(i.HAL_USART_Receive) refers to stm32f7xx_hal.o(i.HAL_GetTick) for HAL_GetTick
    stm32f7xx_hal_usart.o(i.HAL_USART_Receive) refers to stm32f7xx_hal_usart.o(i.USART_WaitOnFlagUntilTimeout) for USART_WaitOnFlagUntilTimeout
    stm32f7xx_hal_usart.o(i.HAL_USART_Receive_DMA) refers to stm32f7xx_hal_dma.o(i.HAL_DMA_Start_IT) for HAL_DMA_Start_IT
    stm32f7xx_hal_usart.o(i.HAL_USART_Receive_DMA) refers to stm32f7xx_hal_usart.o(i.USART_DMAReceiveCplt) for USART_DMAReceiveCplt
    stm32f7xx_hal_usart.o(i.HAL_USART_Receive_DMA) refers to stm32f7xx_hal_usart.o(i.USART_DMARxHalfCplt) for USART_DMARxHalfCplt
    stm32f7xx_hal_usart.o(i.HAL_USART_Receive_DMA) refers to stm32f7xx_hal_usart.o(i.USART_DMAError) for USART_DMAError
    stm32f7xx_hal_usart.o(i.HAL_USART_Transmit) refers to stm32f7xx_hal.o(i.HAL_GetTick) for HAL_GetTick
    stm32f7xx_hal_usart.o(i.HAL_USART_Transmit) refers to stm32f7xx_hal_usart.o(i.USART_WaitOnFlagUntilTimeout) for USART_WaitOnFlagUntilTimeout
    stm32f7xx_hal_usart.o(i.HAL_USART_TransmitReceive) refers to stm32f7xx_hal.o(i.HAL_GetTick) for HAL_GetTick
    stm32f7xx_hal_usart.o(i.HAL_USART_TransmitReceive) refers to stm32f7xx_hal_usart.o(i.USART_WaitOnFlagUntilTimeout) for USART_WaitOnFlagUntilTimeout
    stm32f7xx_hal_usart.o(i.HAL_USART_TransmitReceive_DMA) refers to stm32f7xx_hal_dma.o(i.HAL_DMA_Start_IT) for HAL_DMA_Start_IT
    stm32f7xx_hal_usart.o(i.HAL_USART_TransmitReceive_DMA) refers to stm32f7xx_hal_usart.o(i.USART_DMAReceiveCplt) for USART_DMAReceiveCplt
    stm32f7xx_hal_usart.o(i.HAL_USART_TransmitReceive_DMA) refers to stm32f7xx_hal_usart.o(i.USART_DMARxHalfCplt) for USART_DMARxHalfCplt
    stm32f7xx_hal_usart.o(i.HAL_USART_TransmitReceive_DMA) refers to stm32f7xx_hal_usart.o(i.USART_DMATransmitCplt) for USART_DMATransmitCplt
    stm32f7xx_hal_usart.o(i.HAL_USART_TransmitReceive_DMA) refers to stm32f7xx_hal_usart.o(i.USART_DMATxHalfCplt) for USART_DMATxHalfCplt
    stm32f7xx_hal_usart.o(i.HAL_USART_TransmitReceive_DMA) refers to stm32f7xx_hal_usart.o(i.USART_DMAError) for USART_DMAError
    stm32f7xx_hal_usart.o(i.HAL_USART_Transmit_DMA) refers to stm32f7xx_hal_dma.o(i.HAL_DMA_Start_IT) for HAL_DMA_Start_IT
    stm32f7xx_hal_usart.o(i.HAL_USART_Transmit_DMA) refers to stm32f7xx_hal_usart.o(i.USART_DMATransmitCplt) for USART_DMATransmitCplt
    stm32f7xx_hal_usart.o(i.HAL_USART_Transmit_DMA) refers to stm32f7xx_hal_usart.o(i.USART_DMATxHalfCplt) for USART_DMATxHalfCplt
    stm32f7xx_hal_usart.o(i.HAL_USART_Transmit_DMA) refers to stm32f7xx_hal_usart.o(i.USART_DMAError) for USART_DMAError
    stm32f7xx_hal_usart.o(i.USART_CheckIdleState) refers to stm32f7xx_hal.o(i.HAL_GetTick) for HAL_GetTick
    stm32f7xx_hal_usart.o(i.USART_CheckIdleState) refers to stm32f7xx_hal_usart.o(i.USART_WaitOnFlagUntilTimeout) for USART_WaitOnFlagUntilTimeout
    stm32f7xx_hal_usart.o(i.USART_DMAAbortOnError) refers to stm32f7xx_hal_usart.o(i.HAL_USART_ErrorCallback) for HAL_USART_ErrorCallback
    stm32f7xx_hal_usart.o(i.USART_DMAError) refers to stm32f7xx_hal_usart.o(i.USART_EndTxTransfer) for USART_EndTxTransfer
    stm32f7xx_hal_usart.o(i.USART_DMAError) refers to stm32f7xx_hal_usart.o(i.USART_EndRxTransfer) for USART_EndRxTransfer
    stm32f7xx_hal_usart.o(i.USART_DMAError) refers to stm32f7xx_hal_usart.o(i.HAL_USART_ErrorCallback) for HAL_USART_ErrorCallback
    stm32f7xx_hal_usart.o(i.USART_DMAReceiveCplt) refers to stm32f7xx_hal_usart.o(i.HAL_USART_RxCpltCallback) for HAL_USART_RxCpltCallback
    stm32f7xx_hal_usart.o(i.USART_DMAReceiveCplt) refers to stm32f7xx_hal_usart.o(i.HAL_USART_TxRxCpltCallback) for HAL_USART_TxRxCpltCallback
    stm32f7xx_hal_usart.o(i.USART_DMARxHalfCplt) refers to stm32f7xx_hal_usart.o(i.HAL_USART_RxHalfCpltCallback) for HAL_USART_RxHalfCpltCallback
    stm32f7xx_hal_usart.o(i.USART_DMATransmitCplt) refers to stm32f7xx_hal_usart.o(i.HAL_USART_TxCpltCallback) for HAL_USART_TxCpltCallback
    stm32f7xx_hal_usart.o(i.USART_DMATxHalfCplt) refers to stm32f7xx_hal_usart.o(i.HAL_USART_TxHalfCpltCallback) for HAL_USART_TxHalfCpltCallback
    stm32f7xx_hal_usart.o(i.USART_EndTransmit_IT) refers to stm32f7xx_hal_usart.o(i.HAL_USART_TxCpltCallback) for HAL_USART_TxCpltCallback
    stm32f7xx_hal_usart.o(i.USART_Receive_IT) refers to stm32f7xx_hal_usart.o(i.HAL_USART_RxCpltCallback) for HAL_USART_RxCpltCallback
    stm32f7xx_hal_usart.o(i.USART_SetConfig) refers to stm32f7xx_hal_rcc.o(i.HAL_RCC_GetPCLK1Freq) for HAL_RCC_GetPCLK1Freq
    stm32f7xx_hal_usart.o(i.USART_SetConfig) refers to stm32f7xx_hal_rcc.o(i.HAL_RCC_GetPCLK2Freq) for HAL_RCC_GetPCLK2Freq
    stm32f7xx_hal_usart.o(i.USART_SetConfig) refers to stm32f7xx_hal_rcc.o(i.HAL_RCC_GetSysClockFreq) for HAL_RCC_GetSysClockFreq
    stm32f7xx_hal_usart.o(i.USART_TransmitReceive_IT) refers to stm32f7xx_hal_usart.o(i.HAL_USART_TxRxCpltCallback) for HAL_USART_TxRxCpltCallback
    stm32f7xx_hal_usart.o(i.USART_WaitOnFlagUntilTimeout) refers to stm32f7xx_hal.o(i.HAL_GetTick) for HAL_GetTick
    stm32f7xx_hal_ltdc.o(i.HAL_LTDC_ConfigLayer) refers to rt_memcpy_w.o(.text) for __aeabi_memcpy4
    stm32f7xx_hal_ltdc.o(i.HAL_LTDC_ConfigLayer) refers to stm32f7xx_hal_ltdc.o(i.LTDC_SetConfig) for LTDC_SetConfig
    stm32f7xx_hal_ltdc.o(i.HAL_LTDC_ConfigLayer_NoReload) refers to rt_memcpy_w.o(.text) for __aeabi_memcpy4
    stm32f7xx_hal_ltdc.o(i.HAL_LTDC_ConfigLayer_NoReload) refers to stm32f7xx_hal_ltdc.o(i.LTDC_SetConfig) for LTDC_SetConfig
    stm32f7xx_hal_ltdc.o(i.HAL_LTDC_DeInit) refers to stm32f7xx_hal_ltdc.o(i.HAL_LTDC_MspDeInit) for HAL_LTDC_MspDeInit
    stm32f7xx_hal_ltdc.o(i.HAL_LTDC_IRQHandler) refers to stm32f7xx_hal_ltdc.o(i.HAL_LTDC_ErrorCallback) for HAL_LTDC_ErrorCallback
    stm32f7xx_hal_ltdc.o(i.HAL_LTDC_IRQHandler) refers to stm32f7xx_hal_ltdc.o(i.HAL_LTDC_LineEventCallback) for HAL_LTDC_LineEventCallback
    stm32f7xx_hal_ltdc.o(i.HAL_LTDC_IRQHandler) refers to stm32f7xx_hal_ltdc.o(i.HAL_LTDC_ReloadEventCallback) for HAL_LTDC_ReloadEventCallback
    stm32f7xx_hal_ltdc.o(i.HAL_LTDC_Init) refers to ltdc.o(i.HAL_LTDC_MspInit) for HAL_LTDC_MspInit
    stm32f7xx_hal_ltdc.o(i.HAL_LTDC_SetAddress) refers to stm32f7xx_hal_ltdc.o(i.LTDC_SetConfig) for LTDC_SetConfig
    stm32f7xx_hal_ltdc.o(i.HAL_LTDC_SetAddress_NoReload) refers to stm32f7xx_hal_ltdc.o(i.LTDC_SetConfig) for LTDC_SetConfig
    stm32f7xx_hal_ltdc.o(i.HAL_LTDC_SetAlpha) refers to stm32f7xx_hal_ltdc.o(i.LTDC_SetConfig) for LTDC_SetConfig
    stm32f7xx_hal_ltdc.o(i.HAL_LTDC_SetAlpha_NoReload) refers to stm32f7xx_hal_ltdc.o(i.LTDC_SetConfig) for LTDC_SetConfig
    stm32f7xx_hal_ltdc.o(i.HAL_LTDC_SetPixelFormat) refers to stm32f7xx_hal_ltdc.o(i.LTDC_SetConfig) for LTDC_SetConfig
    stm32f7xx_hal_ltdc.o(i.HAL_LTDC_SetPixelFormat_NoReload) refers to stm32f7xx_hal_ltdc.o(i.LTDC_SetConfig) for LTDC_SetConfig
    stm32f7xx_hal_ltdc.o(i.HAL_LTDC_SetWindowPosition) refers to stm32f7xx_hal_ltdc.o(i.LTDC_SetConfig) for LTDC_SetConfig
    stm32f7xx_hal_ltdc.o(i.HAL_LTDC_SetWindowPosition_NoReload) refers to stm32f7xx_hal_ltdc.o(i.LTDC_SetConfig) for LTDC_SetConfig
    stm32f7xx_hal_ltdc.o(i.HAL_LTDC_SetWindowSize) refers to stm32f7xx_hal_ltdc.o(i.LTDC_SetConfig) for LTDC_SetConfig
    stm32f7xx_hal_ltdc.o(i.HAL_LTDC_SetWindowSize_NoReload) refers to stm32f7xx_hal_ltdc.o(i.LTDC_SetConfig) for LTDC_SetConfig
    stm32f7xx_hal_sram.o(i.HAL_SRAM_DeInit) refers to stm32f7xx_hal_sram.o(i.HAL_SRAM_MspDeInit) for HAL_SRAM_MspDeInit
    stm32f7xx_hal_sram.o(i.HAL_SRAM_DeInit) refers to stm32f7xx_ll_fmc.o(i.FMC_NORSRAM_DeInit) for FMC_NORSRAM_DeInit
    stm32f7xx_hal_sram.o(i.HAL_SRAM_Init) refers to lcd.o(i.HAL_SRAM_MspInit) for HAL_SRAM_MspInit
    stm32f7xx_hal_sram.o(i.HAL_SRAM_Init) refers to stm32f7xx_ll_fmc.o(i.FMC_NORSRAM_Init) for FMC_NORSRAM_Init
    stm32f7xx_hal_sram.o(i.HAL_SRAM_Init) refers to stm32f7xx_ll_fmc.o(i.FMC_NORSRAM_Timing_Init) for FMC_NORSRAM_Timing_Init
    stm32f7xx_hal_sram.o(i.HAL_SRAM_Init) refers to stm32f7xx_ll_fmc.o(i.FMC_NORSRAM_Extended_Timing_Init) for FMC_NORSRAM_Extended_Timing_Init
    stm32f7xx_hal_sram.o(i.HAL_SRAM_Read_DMA) refers to stm32f7xx_hal_dma.o(i.HAL_DMA_Start_IT) for HAL_DMA_Start_IT
    stm32f7xx_hal_sram.o(i.HAL_SRAM_Read_DMA) refers to stm32f7xx_hal_sram.o(i.HAL_SRAM_DMA_XferCpltCallback) for HAL_SRAM_DMA_XferCpltCallback
    stm32f7xx_hal_sram.o(i.HAL_SRAM_Read_DMA) refers to stm32f7xx_hal_sram.o(i.HAL_SRAM_DMA_XferErrorCallback) for HAL_SRAM_DMA_XferErrorCallback
    stm32f7xx_hal_sram.o(i.HAL_SRAM_WriteOperation_Disable) refers to stm32f7xx_ll_fmc.o(i.FMC_NORSRAM_WriteOperation_Disable) for FMC_NORSRAM_WriteOperation_Disable
    stm32f7xx_hal_sram.o(i.HAL_SRAM_WriteOperation_Enable) refers to stm32f7xx_ll_fmc.o(i.FMC_NORSRAM_WriteOperation_Enable) for FMC_NORSRAM_WriteOperation_Enable
    stm32f7xx_hal_sram.o(i.HAL_SRAM_Write_DMA) refers to stm32f7xx_hal_dma.o(i.HAL_DMA_Start_IT) for HAL_DMA_Start_IT
    stm32f7xx_hal_sram.o(i.HAL_SRAM_Write_DMA) refers to stm32f7xx_hal_sram.o(i.HAL_SRAM_DMA_XferCpltCallback) for HAL_SRAM_DMA_XferCpltCallback
    stm32f7xx_hal_sram.o(i.HAL_SRAM_Write_DMA) refers to stm32f7xx_hal_sram.o(i.HAL_SRAM_DMA_XferErrorCallback) for HAL_SRAM_DMA_XferErrorCallback
    stm32f7xx_ll_fmc.o(i.FMC_NAND_GetECC) refers to stm32f7xx_hal.o(i.HAL_GetTick) for HAL_GetTick
    stm32f7xx_ll_fmc.o(i.FMC_SDRAM_SendCommand) refers to stm32f7xx_hal.o(i.HAL_GetTick) for HAL_GetTick
    stm32f7xx_hal_sdram.o(i.HAL_SDRAM_DeInit) refers to stm32f7xx_hal_sdram.o(i.HAL_SDRAM_MspDeInit) for HAL_SDRAM_MspDeInit
    stm32f7xx_hal_sdram.o(i.HAL_SDRAM_DeInit) refers to stm32f7xx_ll_fmc.o(i.FMC_SDRAM_DeInit) for FMC_SDRAM_DeInit
    stm32f7xx_hal_sdram.o(i.HAL_SDRAM_GetModeStatus) refers to stm32f7xx_ll_fmc.o(i.FMC_SDRAM_GetModeStatus) for FMC_SDRAM_GetModeStatus
    stm32f7xx_hal_sdram.o(i.HAL_SDRAM_IRQHandler) refers to stm32f7xx_hal_sdram.o(i.HAL_SDRAM_RefreshErrorCallback) for HAL_SDRAM_RefreshErrorCallback
    stm32f7xx_hal_sdram.o(i.HAL_SDRAM_Init) refers to sdram.o(i.HAL_SDRAM_MspInit) for HAL_SDRAM_MspInit
    stm32f7xx_hal_sdram.o(i.HAL_SDRAM_Init) refers to stm32f7xx_ll_fmc.o(i.FMC_SDRAM_Init) for FMC_SDRAM_Init
    stm32f7xx_hal_sdram.o(i.HAL_SDRAM_Init) refers to stm32f7xx_ll_fmc.o(i.FMC_SDRAM_Timing_Init) for FMC_SDRAM_Timing_Init
    stm32f7xx_hal_sdram.o(i.HAL_SDRAM_ProgramRefreshRate) refers to stm32f7xx_ll_fmc.o(i.FMC_SDRAM_ProgramRefreshRate) for FMC_SDRAM_ProgramRefreshRate
    stm32f7xx_hal_sdram.o(i.HAL_SDRAM_Read_DMA) refers to stm32f7xx_hal_dma.o(i.HAL_DMA_Start_IT) for HAL_DMA_Start_IT
    stm32f7xx_hal_sdram.o(i.HAL_SDRAM_Read_DMA) refers to stm32f7xx_hal_sdram.o(i.HAL_SDRAM_DMA_XferCpltCallback) for HAL_SDRAM_DMA_XferCpltCallback
    stm32f7xx_hal_sdram.o(i.HAL_SDRAM_Read_DMA) refers to stm32f7xx_hal_sdram.o(i.HAL_SDRAM_DMA_XferErrorCallback) for HAL_SDRAM_DMA_XferErrorCallback
    stm32f7xx_hal_sdram.o(i.HAL_SDRAM_SendCommand) refers to stm32f7xx_ll_fmc.o(i.FMC_SDRAM_SendCommand) for FMC_SDRAM_SendCommand
    stm32f7xx_hal_sdram.o(i.HAL_SDRAM_SetAutoRefreshNumber) refers to stm32f7xx_ll_fmc.o(i.FMC_SDRAM_SetAutoRefreshNumber) for FMC_SDRAM_SetAutoRefreshNumber
    stm32f7xx_hal_sdram.o(i.HAL_SDRAM_WriteProtection_Disable) refers to stm32f7xx_ll_fmc.o(i.FMC_SDRAM_WriteProtection_Disable) for FMC_SDRAM_WriteProtection_Disable
    stm32f7xx_hal_sdram.o(i.HAL_SDRAM_WriteProtection_Enable) refers to stm32f7xx_ll_fmc.o(i.FMC_SDRAM_WriteProtection_Enable) for FMC_SDRAM_WriteProtection_Enable
    stm32f7xx_hal_sdram.o(i.HAL_SDRAM_Write_DMA) refers to stm32f7xx_hal_dma.o(i.HAL_DMA_Start_IT) for HAL_DMA_Start_IT
    stm32f7xx_hal_sdram.o(i.HAL_SDRAM_Write_DMA) refers to stm32f7xx_hal_sdram.o(i.HAL_SDRAM_DMA_XferCpltCallback) for HAL_SDRAM_DMA_XferCpltCallback
    stm32f7xx_hal_sdram.o(i.HAL_SDRAM_Write_DMA) refers to stm32f7xx_hal_sdram.o(i.HAL_SDRAM_DMA_XferErrorCallback) for HAL_SDRAM_DMA_XferErrorCallback
    delay.o(i.SysTick_Handler) refers to stm32f7xx_hal.o(i.HAL_IncTick) for HAL_IncTick
    delay.o(i.SysTick_Handler) refers to os_core.o(i.OSIntEnter) for OSIntEnter
    delay.o(i.SysTick_Handler) refers to os_time.o(i.OSTimeTick) for OSTimeTick
    delay.o(i.SysTick_Handler) refers to os_core.o(i.OSIntExit) for OSIntExit
    delay.o(i.SysTick_Handler) refers to os_var.o(.data) for OSRunning
    delay.o(i.delay_init) refers to stm32f7xx_hal_cortex.o(i.HAL_SYSTICK_CLKSourceConfig) for HAL_SYSTICK_CLKSourceConfig
    delay.o(i.delay_init) refers to delay.o(.data) for fac_us
    delay.o(i.delay_init) refers to os_cfg_app.o(.constdata) for OSCfg_TickRate_Hz
    delay.o(i.delay_ms) refers to delay.o(i.delay_ostimedly) for delay_ostimedly
    delay.o(i.delay_ms) refers to delay.o(i.delay_us) for delay_us
    delay.o(i.delay_ms) refers to os_var.o(.data) for OSRunning
    delay.o(i.delay_ms) refers to delay.o(.data) for fac_ms
    delay.o(i.delay_osschedlock) refers to os_core.o(i.OSSchedLock) for OSSchedLock
    delay.o(i.delay_osschedunlock) refers to os_core.o(i.OSSchedUnlock) for OSSchedUnlock
    delay.o(i.delay_ostimedly) refers to os_time.o(i.OSTimeDly) for OSTimeDly
    delay.o(i.delay_us) refers to delay.o(i.delay_osschedlock) for delay_osschedlock
    delay.o(i.delay_us) refers to delay.o(i.delay_osschedunlock) for delay_osschedunlock
    delay.o(i.delay_us) refers to delay.o(.data) for fac_us
    sys.o(i.Cache_Enable) refers to sys.o(i.SCB_EnableDCache) for SCB_EnableDCache
    sys.o(i.Stm32_Clock_Init) refers to stm32f7xx_hal_rcc_ex.o(i.HAL_RCC_OscConfig) for HAL_RCC_OscConfig
    sys.o(i.Stm32_Clock_Init) refers to stm32f7xx_hal_pwr_ex.o(i.HAL_PWREx_EnableOverDrive) for HAL_PWREx_EnableOverDrive
    sys.o(i.Stm32_Clock_Init) refers to stm32f7xx_hal_rcc.o(i.HAL_RCC_ClockConfig) for HAL_RCC_ClockConfig
    usart.o(.rev16_text) refers (Special) to use_no_semi_2.o(.text) for __use_no_semihosting
    usart.o(.revsh_text) refers (Special) to use_no_semi_2.o(.text) for __use_no_semihosting
    usart.o(.rrx_text) refers (Special) to use_no_semi_2.o(.text) for __use_no_semihosting
    usart.o(i.Check_Receivedata) refers (Special) to use_no_semi_2.o(.text) for __use_no_semihosting
    usart.o(i.HAL_UART_MspInit) refers (Special) to use_no_semi_2.o(.text) for __use_no_semihosting
    usart.o(i.HAL_UART_MspInit) refers to stm32f7xx_hal_gpio.o(i.HAL_GPIO_Init) for HAL_GPIO_Init
    usart.o(i.HAL_UART_MspInit) refers to stm32f7xx_hal_cortex.o(i.HAL_NVIC_EnableIRQ) for HAL_NVIC_EnableIRQ
    usart.o(i.HAL_UART_MspInit) refers to stm32f7xx_hal_cortex.o(i.HAL_NVIC_SetPriority) for HAL_NVIC_SetPriority
    usart.o(i.UART7_IRQHandler) refers (Special) to use_no_semi_2.o(.text) for __use_no_semihosting
    usart.o(i.UART7_IRQHandler) refers to os_core.o(i.OSIntEnter) for OSIntEnter
    usart.o(i.UART7_IRQHandler) refers to stm32f7xx_hal_uart.o(i.HAL_UART_Receive) for HAL_UART_Receive
    usart.o(i.UART7_IRQHandler) refers to os_sem.o(i.OSSemPost) for OSSemPost
    usart.o(i.UART7_IRQHandler) refers to os_core.o(i.OSIntExit) for OSIntExit
    usart.o(i.UART7_IRQHandler) refers to usart.o(.bss) for UART7_Handler
    usart.o(i.UART7_IRQHandler) refers to usart.o(.data) for RxCounter4
    usart.o(i.UART7_IRQHandler) refers to main.o(.bss) for GPS_SEM
    usart.o(i.USART2_IRQHandler) refers (Special) to use_no_semi_2.o(.text) for __use_no_semihosting
    usart.o(i.USART2_IRQHandler) refers to os_core.o(i.OSIntEnter) for OSIntEnter
    usart.o(i.USART2_IRQHandler) refers to stm32f7xx_hal_uart.o(i.HAL_UART_Receive) for HAL_UART_Receive
    usart.o(i.USART2_IRQHandler) refers to lcd.o(i.LCD_ShowNum) for LCD_ShowNum
    usart.o(i.USART2_IRQHandler) refers to os_core.o(i.OSIntExit) for OSIntExit
    usart.o(i.USART2_IRQHandler) refers to usart.o(.bss) for UART2_Handler
    usart.o(i.USART2_IRQHandler) refers to usart.o(.data) for RxCounter4
    usart.o(i._sys_exit) refers (Special) to use_no_semi_2.o(.text) for __use_no_semihosting
    usart.o(i.fputc) refers (Special) to use_no_semi_2.o(.text) for __use_no_semihosting
    usart.o(i.uart2_init) refers (Special) to use_no_semi_2.o(.text) for __use_no_semihosting
    usart.o(i.uart2_init) refers to stm32f7xx_hal_uart.o(i.HAL_UART_Init) for HAL_UART_Init
    usart.o(i.uart2_init) refers to usart.o(.bss) for UART2_Handler
    usart.o(i.uart3_init) refers (Special) to use_no_semi_2.o(.text) for __use_no_semihosting
    usart.o(i.uart3_init) refers to stm32f7xx_hal_uart.o(i.HAL_UART_Init) for HAL_UART_Init
    usart.o(i.uart3_init) refers to usart.o(.bss) for UART3_Handler
    usart.o(i.uart7_init) refers (Special) to use_no_semi_2.o(.text) for __use_no_semihosting
    usart.o(i.uart7_init) refers to stm32f7xx_hal_uart.o(i.HAL_UART_Init) for HAL_UART_Init
    usart.o(i.uart7_init) refers to usart.o(.bss) for UART7_Handler
    usart.o(i.uart_init) refers (Special) to use_no_semi_2.o(.text) for __use_no_semihosting
    usart.o(i.uart_init) refers to usart.o(i.uart2_init) for uart2_init
    usart.o(i.uart_init) refers to usart.o(i.uart7_init) for uart7_init
    usart.o(.bss) refers (Special) to use_no_semi_2.o(.text) for __use_no_semihosting
    usart.o(.data) refers (Special) to use_no_semi_2.o(.text) for __use_no_semihosting
    led.o(i.LED_Init) refers to stm32f7xx_hal_gpio.o(i.HAL_GPIO_Init) for HAL_GPIO_Init
    led.o(i.LED_Init) refers to stm32f7xx_hal_gpio.o(i.HAL_GPIO_WritePin) for HAL_GPIO_WritePin
    key.o(i.KEY_Init) refers to stm32f7xx_hal_gpio.o(i.HAL_GPIO_Init) for HAL_GPIO_Init
    key.o(i.KEY_Scan) refers to stm32f7xx_hal_gpio.o(i.HAL_GPIO_ReadPin) for HAL_GPIO_ReadPin
    key.o(i.KEY_Scan) refers to delay.o(i.delay_ms) for delay_ms
    key.o(i.KEY_Scan) refers to key.o(.data) for key_up
    lcd.o(i.HAL_SRAM_MspInit) refers to stm32f7xx_hal_gpio.o(i.HAL_GPIO_Init) for HAL_GPIO_Init
    lcd.o(i.LCD_Clear) refers to ltdc.o(i.LTDC_Clear) for LTDC_Clear
    lcd.o(i.LCD_Clear) refers to lcd.o(i.LCD_SetCursor) for LCD_SetCursor
    lcd.o(i.LCD_Clear) refers to lcd.o(i.LCD_WriteRAM_Prepare) for LCD_WriteRAM_Prepare
    lcd.o(i.LCD_Clear) refers to lcd.o(.bss) for lcddev
    lcd.o(i.LCD_Clear) refers to ltdc.o(.bss) for lcdltdc
    lcd.o(i.LCD_Color_Fill) refers to ltdc.o(i.LTDC_Color_Fill) for LTDC_Color_Fill
    lcd.o(i.LCD_Color_Fill) refers to lcd.o(i.LCD_SetCursor) for LCD_SetCursor
    lcd.o(i.LCD_Color_Fill) refers to lcd.o(i.LCD_WriteRAM_Prepare) for LCD_WriteRAM_Prepare
    lcd.o(i.LCD_Color_Fill) refers to ltdc.o(.bss) for lcdltdc
    lcd.o(i.LCD_DisplayOff) refers to ltdc.o(i.LTDC_Switch) for LTDC_Switch
    lcd.o(i.LCD_DisplayOff) refers to lcd.o(i.LCD_WR_REG) for LCD_WR_REG
    lcd.o(i.LCD_DisplayOff) refers to ltdc.o(.bss) for lcdltdc
    lcd.o(i.LCD_DisplayOff) refers to lcd.o(.bss) for lcddev
    lcd.o(i.LCD_DisplayOn) refers to ltdc.o(i.LTDC_Switch) for LTDC_Switch
    lcd.o(i.LCD_DisplayOn) refers to lcd.o(i.LCD_WR_REG) for LCD_WR_REG
    lcd.o(i.LCD_DisplayOn) refers to ltdc.o(.bss) for lcdltdc
    lcd.o(i.LCD_DisplayOn) refers to lcd.o(.bss) for lcddev
    lcd.o(i.LCD_Display_Dir) refers to ltdc.o(i.LTDC_Display_Dir) for LTDC_Display_Dir
    lcd.o(i.LCD_Display_Dir) refers to lcd.o(i.LCD_Scan_Dir) for LCD_Scan_Dir
    lcd.o(i.LCD_Display_Dir) refers to lcd.o(.bss) for lcddev
    lcd.o(i.LCD_Display_Dir) refers to ltdc.o(.bss) for lcdltdc
    lcd.o(i.LCD_DrawLine) refers to lcd.o(i.LCD_DrawPoint) for LCD_DrawPoint
    lcd.o(i.LCD_DrawPoint) refers to ltdc.o(i.LTDC_Draw_Point) for LTDC_Draw_Point
    lcd.o(i.LCD_DrawPoint) refers to lcd.o(i.LCD_SetCursor) for LCD_SetCursor
    lcd.o(i.LCD_DrawPoint) refers to lcd.o(i.LCD_WriteRAM_Prepare) for LCD_WriteRAM_Prepare
    lcd.o(i.LCD_DrawPoint) refers to ltdc.o(.bss) for lcdltdc
    lcd.o(i.LCD_DrawPoint) refers to lcd.o(.data) for POINT_COLOR
    lcd.o(i.LCD_DrawRectangle) refers to lcd.o(i.LCD_DrawLine) for LCD_DrawLine
    lcd.o(i.LCD_Draw_Circle) refers to lcd.o(i.LCD_DrawPoint) for LCD_DrawPoint
    lcd.o(i.LCD_Fast_DrawPoint) refers to ltdc.o(i.LTDC_Draw_Point) for LTDC_Draw_Point
    lcd.o(i.LCD_Fast_DrawPoint) refers to lcd.o(i.LCD_WR_REG) for LCD_WR_REG
    lcd.o(i.LCD_Fast_DrawPoint) refers to lcd.o(i.LCD_WR_DATA) for LCD_WR_DATA
    lcd.o(i.LCD_Fast_DrawPoint) refers to ltdc.o(.bss) for lcdltdc
    lcd.o(i.LCD_Fast_DrawPoint) refers to lcd.o(.bss) for lcddev
    lcd.o(i.LCD_Fill) refers to ltdc.o(i.LTDC_Fill) for LTDC_Fill
    lcd.o(i.LCD_Fill) refers to lcd.o(i.LCD_SetCursor) for LCD_SetCursor
    lcd.o(i.LCD_Fill) refers to lcd.o(i.LCD_WriteRAM_Prepare) for LCD_WriteRAM_Prepare
    lcd.o(i.LCD_Fill) refers to ltdc.o(.bss) for lcdltdc
    lcd.o(i.LCD_Init) refers to ltdc.o(i.LTDC_PanelID_Read) for LTDC_PanelID_Read
    lcd.o(i.LCD_Init) refers to ltdc.o(i.LTDC_Init) for LTDC_Init
    lcd.o(i.LCD_Init) refers to stm32f7xx_hal_gpio.o(i.HAL_GPIO_Init) for HAL_GPIO_Init
    lcd.o(i.LCD_Init) refers to lcd.o(i.LCD_MPU_Config) for LCD_MPU_Config
    lcd.o(i.LCD_Init) refers to stm32f7xx_hal_sram.o(i.HAL_SRAM_Init) for HAL_SRAM_Init
    lcd.o(i.LCD_Init) refers to delay.o(i.delay_ms) for delay_ms
    lcd.o(i.LCD_Init) refers to lcd.o(i.LCD_WR_REG) for LCD_WR_REG
    lcd.o(i.LCD_Init) refers to lcd.o(i.LCD_RD_DATA) for LCD_RD_DATA
    lcd.o(i.LCD_Init) refers to lcd.o(i.LCD_WR_DATA) for LCD_WR_DATA
    lcd.o(i.LCD_Init) refers to lcd.o(.bss) for lcddev
    lcd.o(i.LCD_Init) refers to lcd.o(i.LCD_WriteReg) for LCD_WriteReg
    lcd.o(i.LCD_Init) refers to delay.o(i.delay_us) for delay_us
    lcd.o(i.LCD_Init) refers to lcd.o(i.LCD_SSD_BackLightSet) for LCD_SSD_BackLightSet
    lcd.o(i.LCD_Init) refers to lcd.o(i.LCD_Display_Dir) for LCD_Display_Dir
    lcd.o(i.LCD_Init) refers to stm32f7xx_hal_gpio.o(i.HAL_GPIO_WritePin) for HAL_GPIO_WritePin
    lcd.o(i.LCD_Init) refers to lcd.o(i.LCD_Clear) for LCD_Clear
    lcd.o(i.LCD_MPU_Config) refers to stm32f7xx_hal_cortex.o(i.HAL_MPU_ConfigRegion) for HAL_MPU_ConfigRegion
    lcd.o(i.LCD_ReadPoint) refers to ltdc.o(i.LTDC_Read_Point) for LTDC_Read_Point
    lcd.o(i.LCD_ReadPoint) refers to lcd.o(i.LCD_SetCursor) for LCD_SetCursor
    lcd.o(i.LCD_ReadPoint) refers to lcd.o(i.LCD_WR_REG) for LCD_WR_REG
    lcd.o(i.LCD_ReadPoint) refers to lcd.o(i.LCD_RD_DATA) for LCD_RD_DATA
    lcd.o(i.LCD_ReadPoint) refers to lcd.o(i.opt_delay) for opt_delay
    lcd.o(i.LCD_ReadPoint) refers to lcd.o(.bss) for lcddev
    lcd.o(i.LCD_ReadPoint) refers to ltdc.o(.bss) for lcdltdc
    lcd.o(i.LCD_ReadReg) refers to lcd.o(i.LCD_WR_REG) for LCD_WR_REG
    lcd.o(i.LCD_ReadReg) refers to delay.o(i.delay_us) for delay_us
    lcd.o(i.LCD_ReadReg) refers to lcd.o(i.LCD_RD_DATA) for LCD_RD_DATA
    lcd.o(i.LCD_SSD_BackLightSet) refers to lcd.o(i.LCD_WR_REG) for LCD_WR_REG
    lcd.o(i.LCD_SSD_BackLightSet) refers to lcd.o(i.LCD_WR_DATA) for LCD_WR_DATA
    lcd.o(i.LCD_Scan_Dir) refers to lcd.o(i.LCD_WriteReg) for LCD_WriteReg
    lcd.o(i.LCD_Scan_Dir) refers to lcd.o(i.LCD_WR_REG) for LCD_WR_REG
    lcd.o(i.LCD_Scan_Dir) refers to lcd.o(i.LCD_WR_DATA) for LCD_WR_DATA
    lcd.o(i.LCD_Scan_Dir) refers to lcd.o(.bss) for lcddev
    lcd.o(i.LCD_SetCursor) refers to lcd.o(i.LCD_WR_REG) for LCD_WR_REG
    lcd.o(i.LCD_SetCursor) refers to lcd.o(i.LCD_WR_DATA) for LCD_WR_DATA
    lcd.o(i.LCD_SetCursor) refers to lcd.o(.bss) for lcddev
    lcd.o(i.LCD_Set_Window) refers to lcd.o(i.LCD_WR_REG) for LCD_WR_REG
    lcd.o(i.LCD_Set_Window) refers to lcd.o(i.LCD_WR_DATA) for LCD_WR_DATA
    lcd.o(i.LCD_Set_Window) refers to lcd.o(.bss) for lcddev
    lcd.o(i.LCD_ShowChar) refers to lcd.o(i.LCD_Fast_DrawPoint) for LCD_Fast_DrawPoint
    lcd.o(i.LCD_ShowChar) refers to lcd.o(.constdata) for asc2_1206
    lcd.o(i.LCD_ShowChar) refers to lcd.o(.data) for POINT_COLOR
    lcd.o(i.LCD_ShowChar) refers to lcd.o(.bss) for lcddev
    lcd.o(i.LCD_ShowNum) refers to lcd.o(i.LCD_Pow) for LCD_Pow
    lcd.o(i.LCD_ShowNum) refers to lcd.o(i.LCD_ShowChar) for LCD_ShowChar
    lcd.o(i.LCD_ShowString) refers to lcd.o(i.LCD_ShowChar) for LCD_ShowChar
    lcd.o(i.LCD_ShowxNum) refers to lcd.o(i.LCD_Pow) for LCD_Pow
    lcd.o(i.LCD_ShowxNum) refers to lcd.o(i.LCD_ShowChar) for LCD_ShowChar
    lcd.o(i.LCD_WriteRAM_Prepare) refers to lcd.o(.bss) for lcddev
    ltdc.o(i.HAL_LTDC_MspInit) refers to stm32f7xx_hal_gpio.o(i.HAL_GPIO_Init) for HAL_GPIO_Init
    ltdc.o(i.LTDC_Clear) refers to ltdc.o(i.LTDC_Fill) for LTDC_Fill
    ltdc.o(i.LTDC_Clear) refers to ltdc.o(.bss) for lcdltdc
    ltdc.o(i.LTDC_Clk_Set) refers to stm32f7xx_hal_rcc_ex.o(i.HAL_RCCEx_PeriphCLKConfig) for HAL_RCCEx_PeriphCLKConfig
    ltdc.o(i.LTDC_Color_Fill) refers to ltdc.o(.bss) for lcdltdc
    ltdc.o(i.LTDC_Color_Fill) refers to ltdc.o(.data) for ltdc_framebuf
    ltdc.o(i.LTDC_Display_Dir) refers to ltdc.o(.bss) for lcdltdc
    ltdc.o(i.LTDC_Draw_Point) refers to ltdc.o(.bss) for lcdltdc
    ltdc.o(i.LTDC_Draw_Point) refers to ltdc.o(.data) for ltdc_framebuf
    ltdc.o(i.LTDC_Fill) refers to ltdc.o(.bss) for lcdltdc
    ltdc.o(i.LTDC_Fill) refers to ltdc.o(.data) for ltdc_framebuf
    ltdc.o(i.LTDC_Init) refers to ltdc.o(i.LTDC_PanelID_Read) for LTDC_PanelID_Read
    ltdc.o(i.LTDC_Init) refers to ltdc.o(i.LTDC_Clk_Set) for LTDC_Clk_Set
    ltdc.o(i.LTDC_Init) refers to stm32f7xx_hal_ltdc.o(i.HAL_LTDC_Init) for HAL_LTDC_Init
    ltdc.o(i.LTDC_Init) refers to ltdc.o(i.LTDC_Layer_Parameter_Config) for LTDC_Layer_Parameter_Config
    ltdc.o(i.LTDC_Init) refers to ltdc.o(i.LTDC_Layer_Window_Config) for LTDC_Layer_Window_Config
    ltdc.o(i.LTDC_Init) refers to ltdc.o(i.LTDC_Display_Dir) for LTDC_Display_Dir
    ltdc.o(i.LTDC_Init) refers to ltdc.o(i.LTDC_Select_Layer) for LTDC_Select_Layer
    ltdc.o(i.LTDC_Init) refers to stm32f7xx_hal_gpio.o(i.HAL_GPIO_WritePin) for HAL_GPIO_WritePin
    ltdc.o(i.LTDC_Init) refers to ltdc.o(i.LTDC_Clear) for LTDC_Clear
    ltdc.o(i.LTDC_Init) refers to ltdc.o(.bss) for lcdltdc
    ltdc.o(i.LTDC_Init) refers to lcd.o(.bss) for lcddev
    ltdc.o(i.LTDC_Init) refers to ltdc.o(.ARM.__AT_0xC0000000) for ltdc_lcd_framebuf
    ltdc.o(i.LTDC_Init) refers to ltdc.o(.data) for ltdc_framebuf
    ltdc.o(i.LTDC_Layer_Parameter_Config) refers to stm32f7xx_hal_ltdc.o(i.HAL_LTDC_ConfigLayer) for HAL_LTDC_ConfigLayer
    ltdc.o(i.LTDC_Layer_Parameter_Config) refers to ltdc.o(.bss) for lcdltdc
    ltdc.o(i.LTDC_Layer_Switch) refers to ltdc.o(.bss) for LTDC_Handler
    ltdc.o(i.LTDC_Layer_Window_Config) refers to stm32f7xx_hal_ltdc.o(i.HAL_LTDC_SetWindowPosition) for HAL_LTDC_SetWindowPosition
    ltdc.o(i.LTDC_Layer_Window_Config) refers to stm32f7xx_hal_ltdc.o(i.HAL_LTDC_SetWindowSize) for HAL_LTDC_SetWindowSize
    ltdc.o(i.LTDC_Layer_Window_Config) refers to ltdc.o(.bss) for LTDC_Handler
    ltdc.o(i.LTDC_PanelID_Read) refers to stm32f7xx_hal_gpio.o(i.HAL_GPIO_Init) for HAL_GPIO_Init
    ltdc.o(i.LTDC_PanelID_Read) refers to stm32f7xx_hal_gpio.o(i.HAL_GPIO_ReadPin) for HAL_GPIO_ReadPin
    ltdc.o(i.LTDC_Read_Point) refers to ltdc.o(.bss) for lcdltdc
    ltdc.o(i.LTDC_Read_Point) refers to ltdc.o(.data) for ltdc_framebuf
    ltdc.o(i.LTDC_Select_Layer) refers to ltdc.o(.bss) for lcdltdc
    ltdc.o(i.LTDC_Switch) refers to ltdc.o(.bss) for LTDC_Handler
    sdram.o(i.HAL_SDRAM_MspInit) refers to stm32f7xx_hal_gpio.o(i.HAL_GPIO_Init) for HAL_GPIO_Init
    sdram.o(i.SDRAM_Init) refers to stm32f7xx_hal_sdram.o(i.HAL_SDRAM_Init) for HAL_SDRAM_Init
    sdram.o(i.SDRAM_Init) refers to sdram.o(i.SDRAM_Send_Cmd) for SDRAM_Send_Cmd
    sdram.o(i.SDRAM_Init) refers to delay.o(i.delay_us) for delay_us
    sdram.o(i.SDRAM_Init) refers to stm32f7xx_hal_sdram.o(i.HAL_SDRAM_ProgramRefreshRate) for HAL_SDRAM_ProgramRefreshRate
    sdram.o(i.SDRAM_Init) refers to sdram.o(.bss) for SDRAM_Handler
    sdram.o(i.SDRAM_Send_Cmd) refers to stm32f7xx_hal_sdram.o(i.HAL_SDRAM_SendCommand) for HAL_SDRAM_SendCommand
    sdram.o(i.SDRAM_Send_Cmd) refers to sdram.o(.bss) for SDRAM_Handler
    dma.o(i.MYDMA_Config) refers to stm32f7xx_hal_dma.o(i.HAL_DMA_DeInit) for HAL_DMA_DeInit
    dma.o(i.MYDMA_Config) refers to stm32f7xx_hal_dma.o(i.HAL_DMA_Init) for HAL_DMA_Init
    dma.o(i.MYDMA_Config) refers to dma.o(.bss) for UART2TxDMA_Handler
    dma.o(i.MYDMA_Config) refers to usart.o(.bss) for UART2_Handler
    dma.o(i.Watit_Sendcomplete) refers to stm32f7xx_hal_uart.o(i.HAL_UART_DMAStop) for HAL_UART_DMAStop
    dma.o(i.Watit_Sendcomplete) refers to dma.o(.bss) for UART2TxDMA_Handler
    dma.o(i.Watit_Sendcomplete) refers to usart.o(.bss) for UART2_Handler
    servo.o(i.Data_Init) refers to servo.o(.data) for Servo_State
    servo.o(i.EnableTorque) refers to servo.o(i.Write_Buff) for Write_Buff
    servo.o(i.ReadServo_Position) refers to servo.o(i.Write_Buff) for Write_Buff
    servo.o(i.SYNC_Write_Buff) refers to stm32f7xx_hal_uart.o(i.HAL_UART_Transmit_DMA) for HAL_UART_Transmit_DMA
    servo.o(i.SYNC_Write_Buff) refers to dma.o(i.Watit_Sendcomplete) for Watit_Sendcomplete
    servo.o(i.SYNC_Write_Buff) refers to servo.o(i.Check_Sum) for Check_Sum
    servo.o(i.SYNC_Write_Buff) refers to usart.o(.bss) for UART2_Handler
    servo.o(i.Servo_Lock) refers to servo.o(i.Write_Buff) for Write_Buff
    servo.o(i.Set_Servo_ID) refers to servo.o(i.Write_Buff) for Write_Buff
    servo.o(i.Write_Buff) refers to stm32f7xx_hal_uart.o(i.HAL_UART_Transmit_DMA) for HAL_UART_Transmit_DMA
    servo.o(i.Write_Buff) refers to dma.o(i.Watit_Sendcomplete) for Watit_Sendcomplete
    servo.o(i.Write_Buff) refers to usart.o(.bss) for UART2_Handler
    servo.o(i.Write_Position) refers to servo.o(i.Split_Number) for Split_Number
    servo.o(i.Write_Position) refers to stm32f7xx_hal_uart.o(i.HAL_UART_Transmit_DMA) for HAL_UART_Transmit_DMA
    servo.o(i.Write_Position) refers to dma.o(i.Watit_Sendcomplete) for Watit_Sendcomplete
    servo.o(i.Write_Position) refers to usart.o(.bss) for UART2_Handler
    gps.o(i.GPGGA_DAT) refers to atoi.o(.text) for atoi
    gps.o(i.GPGGA_DAT) refers to usart.o(.bss) for RxBuffer4
    gps.o(i.GPGGA_DAT) refers to gps.o(.data) for GPS_ATLI
    gps.o(i.GPGGA_DAT) refers to usart.o(.data) for Rec_Len
    gps.o(i.GPGSA_DAT) refers to usart.o(.bss) for RxBuffer4
    gps.o(i.GPGSA_DAT) refers to gps.o(.data) for GPS_3D
    gps.o(i.GPGSA_DAT) refers to gps.o(.bss) for star_run
    gps.o(i.GPGSA_DAT) refers to usart.o(.data) for Rec_Len
    gps.o(i.GPGSV_DAT) refers to usart.o(.bss) for RxBuffer4
    gps.o(i.GPGSV_DAT) refers to gps.o(.data) for star_num
    gps.o(i.GPGSV_DAT) refers to gps.o(.bss) for star_info
    gps.o(i.GPGSV_DAT) refers to usart.o(.data) for Rec_Len
    gps.o(i.GPRMC_DAT) refers to usart.o(.bss) for RxBuffer4
    gps.o(i.GPRMC_DAT) refers to gps.o(.data) for Hour
    gps.o(i.GPRMC_DAT) refers to usart.o(.data) for Rec_Len
    bsp.o(i.BSP_CPU_ClkFreq) refers to stm32f7xx_hal_rcc.o(i.HAL_RCC_GetHCLKFreq) for HAL_RCC_GetHCLKFreq
    bsp.o(i.CPU_TS32_to_uSec) refers to bsp.o(i.BSP_CPU_ClkFreq) for BSP_CPU_ClkFreq
    bsp.o(i.CPU_TS32_to_uSec) refers to lludivv7m.o(.text) for __aeabi_uldivmod
    bsp.o(i.CPU_TS_TmrInit) refers to bsp.o(i.BSP_CPU_ClkFreq) for BSP_CPU_ClkFreq
    bsp.o(i.CPU_TS_TmrInit) refers to cpu_core.o(i.CPU_TS_TmrFreqSet) for CPU_TS_TmrFreqSet
    cpu_c.o(i.CPU_IntSrcDis) refers to cpu_a.o(.text) for CPU_SR_Save
    cpu_c.o(i.CPU_IntSrcDis) refers to cpu_core.o(i.CPU_IntDisMeasStart) for CPU_IntDisMeasStart
    cpu_c.o(i.CPU_IntSrcDis) refers to cpu_core.o(i.CPU_IntDisMeasStop) for CPU_IntDisMeasStop
    cpu_c.o(i.CPU_IntSrcEn) refers to cpu_a.o(.text) for CPU_SR_Save
    cpu_c.o(i.CPU_IntSrcEn) refers to cpu_core.o(i.CPU_IntDisMeasStart) for CPU_IntDisMeasStart
    cpu_c.o(i.CPU_IntSrcEn) refers to cpu_core.o(i.CPU_IntDisMeasStop) for CPU_IntDisMeasStop
    cpu_c.o(i.CPU_IntSrcPendClr) refers to cpu_a.o(.text) for CPU_SR_Save
    cpu_c.o(i.CPU_IntSrcPendClr) refers to cpu_core.o(i.CPU_IntDisMeasStart) for CPU_IntDisMeasStart
    cpu_c.o(i.CPU_IntSrcPendClr) refers to cpu_core.o(i.CPU_IntDisMeasStop) for CPU_IntDisMeasStop
    cpu_c.o(i.CPU_IntSrcPrioGet) refers to cpu_a.o(.text) for CPU_SR_Save
    cpu_c.o(i.CPU_IntSrcPrioGet) refers to cpu_core.o(i.CPU_IntDisMeasStart) for CPU_IntDisMeasStart
    cpu_c.o(i.CPU_IntSrcPrioGet) refers to cpu_core.o(i.CPU_IntDisMeasStop) for CPU_IntDisMeasStop
    cpu_c.o(i.CPU_IntSrcPrioSet) refers to cpu_a.o(.text) for CPU_SR_Save
    cpu_c.o(i.CPU_IntSrcPrioSet) refers to cpu_core.o(i.CPU_IntDisMeasStart) for CPU_IntDisMeasStart
    cpu_c.o(i.CPU_IntSrcPrioSet) refers to cpu_core.o(i.CPU_IntDisMeasStop) for CPU_IntDisMeasStop
    cpu_core.o(i.CPU_CntLeadZeros08) refers to cpu_a.o(.text) for CPU_CntLeadZeros
    cpu_core.o(i.CPU_CntLeadZeros16) refers to cpu_a.o(.text) for CPU_CntLeadZeros
    cpu_core.o(i.CPU_CntLeadZeros32) refers to cpu_a.o(.text) for CPU_CntLeadZeros
    cpu_core.o(i.CPU_CntLeadZeros64) refers to cpu_core.o(.constdata) for CPU_CntLeadZerosTbl
    cpu_core.o(i.CPU_CntTrailZeros08) refers to cpu_a.o(.text) for CPU_CntTrailZeros
    cpu_core.o(i.CPU_CntTrailZeros16) refers to cpu_a.o(.text) for CPU_CntTrailZeros
    cpu_core.o(i.CPU_CntTrailZeros32) refers to cpu_a.o(.text) for CPU_CntTrailZeros
    cpu_core.o(i.CPU_CntTrailZeros64) refers to cpu_core.o(i.CPU_CntLeadZeros64) for CPU_CntLeadZeros64
    cpu_core.o(i.CPU_Init) refers to cpu_core.o(i.CPU_TS_Init) for CPU_TS_Init
    cpu_core.o(i.CPU_Init) refers to cpu_core.o(i.CPU_IntDisMeasInit) for CPU_IntDisMeasInit
    cpu_core.o(i.CPU_Init) refers to cpu_core.o(i.CPU_NameInit) for CPU_NameInit
    cpu_core.o(i.CPU_IntDisMeasInit) refers to cpu_a.o(.text) for CPU_SR_Save
    cpu_core.o(i.CPU_IntDisMeasInit) refers to cpu_core.o(i.CPU_IntDisMeasStart) for CPU_IntDisMeasStart
    cpu_core.o(i.CPU_IntDisMeasInit) refers to cpu_core.o(i.CPU_IntDisMeasStop) for CPU_IntDisMeasStop
    cpu_core.o(i.CPU_IntDisMeasInit) refers to cpu_core.o(.data) for CPU_IntDisMeasCtr
    cpu_core.o(i.CPU_IntDisMeasMaxCalc) refers to cpu_core.o(.data) for CPU_IntDisMeasOvrhd_cnts
    cpu_core.o(i.CPU_IntDisMeasMaxCurGet) refers to cpu_a.o(.text) for CPU_SR_Save
    cpu_core.o(i.CPU_IntDisMeasMaxCurGet) refers to cpu_core.o(i.CPU_IntDisMeasMaxCalc) for CPU_IntDisMeasMaxCalc
    cpu_core.o(i.CPU_IntDisMeasMaxCurGet) refers to cpu_core.o(.data) for CPU_IntDisMeasMaxCur_cnts
    cpu_core.o(i.CPU_IntDisMeasMaxCurReset) refers to cpu_core.o(i.CPU_IntDisMeasMaxCurGet) for CPU_IntDisMeasMaxCurGet
    cpu_core.o(i.CPU_IntDisMeasMaxCurReset) refers to cpu_a.o(.text) for CPU_SR_Save
    cpu_core.o(i.CPU_IntDisMeasMaxCurReset) refers to cpu_core.o(.data) for CPU_IntDisMeasMaxCur_cnts
    cpu_core.o(i.CPU_IntDisMeasMaxGet) refers to cpu_a.o(.text) for CPU_SR_Save
    cpu_core.o(i.CPU_IntDisMeasMaxGet) refers to cpu_core.o(i.CPU_IntDisMeasMaxCalc) for CPU_IntDisMeasMaxCalc
    cpu_core.o(i.CPU_IntDisMeasMaxGet) refers to cpu_core.o(.data) for CPU_IntDisMeasMax_cnts
    cpu_core.o(i.CPU_IntDisMeasStart) refers to bsp.o(i.CPU_TS_TmrRd) for CPU_TS_TmrRd
    cpu_core.o(i.CPU_IntDisMeasStart) refers to cpu_core.o(.data) for CPU_IntDisMeasCtr
    cpu_core.o(i.CPU_IntDisMeasStop) refers to bsp.o(i.CPU_TS_TmrRd) for CPU_TS_TmrRd
    cpu_core.o(i.CPU_IntDisMeasStop) refers to cpu_core.o(.data) for CPU_IntDisNestCtr
    cpu_core.o(i.CPU_NameClr) refers to cpu_a.o(.text) for CPU_SR_Save
    cpu_core.o(i.CPU_NameClr) refers to cpu_core.o(i.CPU_IntDisMeasStart) for CPU_IntDisMeasStart
    cpu_core.o(i.CPU_NameClr) refers to lib_mem.o(i.Mem_Clr) for Mem_Clr
    cpu_core.o(i.CPU_NameClr) refers to cpu_core.o(i.CPU_IntDisMeasStop) for CPU_IntDisMeasStop
    cpu_core.o(i.CPU_NameClr) refers to cpu_core.o(.bss) for CPU_Name
    cpu_core.o(i.CPU_NameGet) refers to cpu_core.o(i.CPU_SW_Exception) for CPU_SW_Exception
    cpu_core.o(i.CPU_NameGet) refers to cpu_a.o(.text) for CPU_SR_Save
    cpu_core.o(i.CPU_NameGet) refers to cpu_core.o(i.CPU_IntDisMeasStart) for CPU_IntDisMeasStart
    cpu_core.o(i.CPU_NameGet) refers to lib_str.o(i.Str_Copy_N) for Str_Copy_N
    cpu_core.o(i.CPU_NameGet) refers to cpu_core.o(i.CPU_IntDisMeasStop) for CPU_IntDisMeasStop
    cpu_core.o(i.CPU_NameGet) refers to cpu_core.o(.bss) for CPU_Name
    cpu_core.o(i.CPU_NameInit) refers to cpu_core.o(i.CPU_NameClr) for CPU_NameClr
    cpu_core.o(i.CPU_NameSet) refers to cpu_core.o(i.CPU_SW_Exception) for CPU_SW_Exception
    cpu_core.o(i.CPU_NameSet) refers to lib_str.o(i.Str_Len_N) for Str_Len_N
    cpu_core.o(i.CPU_NameSet) refers to cpu_a.o(.text) for CPU_SR_Save
    cpu_core.o(i.CPU_NameSet) refers to cpu_core.o(i.CPU_IntDisMeasStart) for CPU_IntDisMeasStart
    cpu_core.o(i.CPU_NameSet) refers to lib_str.o(i.Str_Copy_N) for Str_Copy_N
    cpu_core.o(i.CPU_NameSet) refers to cpu_core.o(i.CPU_IntDisMeasStop) for CPU_IntDisMeasStop
    cpu_core.o(i.CPU_NameSet) refers to cpu_core.o(.bss) for CPU_Name
    cpu_core.o(i.CPU_TS_Get32) refers to bsp.o(i.CPU_TS_TmrRd) for CPU_TS_TmrRd
    cpu_core.o(i.CPU_TS_Init) refers to bsp.o(i.CPU_TS_TmrInit) for CPU_TS_TmrInit
    cpu_core.o(i.CPU_TS_Init) refers to cpu_core.o(.data) for CPU_TS_TmrFreq_Hz
    cpu_core.o(i.CPU_TS_TmrFreqGet) refers to cpu_core.o(i.CPU_SW_Exception) for CPU_SW_Exception
    cpu_core.o(i.CPU_TS_TmrFreqGet) refers to cpu_core.o(.data) for CPU_TS_TmrFreq_Hz
    cpu_core.o(i.CPU_TS_TmrFreqSet) refers to cpu_core.o(.data) for CPU_TS_TmrFreq_Hz
    lib_str.o(i.Str_Cat) refers to lib_str.o(i.Str_Cat_N) for Str_Cat_N
    lib_str.o(i.Str_Char) refers to lib_str.o(i.Str_Char_N) for Str_Char_N
    lib_str.o(i.Str_Char_Last) refers to lib_str.o(i.Str_Char_Last_N) for Str_Char_Last_N
    lib_str.o(i.Str_Char_Last_N) refers to lib_str.o(i.Str_Len_N) for Str_Len_N
    lib_str.o(i.Str_Char_Replace) refers to lib_str.o(i.Str_Char_Replace_N) for Str_Char_Replace_N
    lib_str.o(i.Str_Cmp) refers to lib_str.o(i.Str_Cmp_N) for Str_Cmp_N
    lib_str.o(i.Str_CmpIgnoreCase) refers to lib_str.o(i.Str_CmpIgnoreCase_N) for Str_CmpIgnoreCase_N
    lib_str.o(i.Str_CmpIgnoreCase_N) refers to lib_ascii.o(i.ASCII_ToLower) for ASCII_ToLower
    lib_str.o(i.Str_Copy) refers to lib_str.o(i.Str_Copy_N) for Str_Copy_N
    lib_str.o(i.Str_FmtNbr_Int32) refers to lib_ascii.o(i.ASCII_IsPrint) for ASCII_IsPrint
    lib_str.o(i.Str_FmtNbr_Int32S) refers to lib_str.o(i.Str_FmtNbr_Int32) for Str_FmtNbr_Int32
    lib_str.o(i.Str_FmtNbr_Int32U) refers to lib_str.o(i.Str_FmtNbr_Int32) for Str_FmtNbr_Int32
    lib_str.o(i.Str_Len) refers to lib_str.o(i.Str_Len_N) for Str_Len_N
    lib_str.o(i.Str_ParseNbr_Int32) refers to lib_ascii.o(i.ASCII_IsSpace) for ASCII_IsSpace
    lib_str.o(i.Str_ParseNbr_Int32) refers to lib_ascii.o(i.ASCII_IsDigHex) for ASCII_IsDigHex
    lib_str.o(i.Str_ParseNbr_Int32) refers to lib_ascii.o(i.ASCII_IsAlphaNum) for ASCII_IsAlphaNum
    lib_str.o(i.Str_ParseNbr_Int32) refers to lib_ascii.o(i.ASCII_IsDig) for ASCII_IsDig
    lib_str.o(i.Str_ParseNbr_Int32) refers to lib_ascii.o(i.ASCII_IsLower) for ASCII_IsLower
    lib_str.o(i.Str_ParseNbr_Int32) refers to lib_str.o(.constdata) for Str_MultOvfThTbl_Int32U
    lib_str.o(i.Str_ParseNbr_Int32S) refers to lib_str.o(i.Str_ParseNbr_Int32) for Str_ParseNbr_Int32
    lib_str.o(i.Str_ParseNbr_Int32U) refers to lib_str.o(i.Str_ParseNbr_Int32) for Str_ParseNbr_Int32
    lib_str.o(i.Str_Str) refers to lib_str.o(i.Str_Str_N) for Str_Str_N
    lib_str.o(i.Str_Str_N) refers to lib_str.o(i.Str_Len_N) for Str_Len_N
    lib_str.o(i.Str_Str_N) refers to lib_str.o(i.Str_Cmp_N) for Str_Cmp_N
    lib_ascii.o(i.ASCII_Cmp) refers to lib_ascii.o(i.ASCII_ToUpper) for ASCII_ToUpper
    lib_math.o(i.Math_Init) refers to lib_math.o(i.Math_RandSetSeed) for Math_RandSetSeed
    lib_math.o(i.Math_Rand) refers to cpu_a.o(.text) for CPU_SR_Save
    lib_math.o(i.Math_Rand) refers to cpu_core.o(i.CPU_IntDisMeasStart) for CPU_IntDisMeasStart
    lib_math.o(i.Math_Rand) refers to lib_math.o(i.Math_RandSeed) for Math_RandSeed
    lib_math.o(i.Math_Rand) refers to cpu_core.o(i.CPU_IntDisMeasStop) for CPU_IntDisMeasStop
    lib_math.o(i.Math_Rand) refers to lib_math.o(.data) for Math_RandSeedCur
    lib_math.o(i.Math_RandSetSeed) refers to cpu_a.o(.text) for CPU_SR_Save
    lib_math.o(i.Math_RandSetSeed) refers to cpu_core.o(i.CPU_IntDisMeasStart) for CPU_IntDisMeasStart
    lib_math.o(i.Math_RandSetSeed) refers to cpu_core.o(i.CPU_IntDisMeasStop) for CPU_IntDisMeasStop
    lib_math.o(i.Math_RandSetSeed) refers to lib_math.o(.data) for Math_RandSeedCur
    lib_mem.o(i.Mem_Clr) refers to lib_mem.o(i.Mem_Set) for Mem_Set
    lib_mem.o(i.Mem_DynPoolBlkFree) refers to cpu_a.o(.text) for CPU_SR_Save
    lib_mem.o(i.Mem_DynPoolBlkFree) refers to cpu_core.o(i.CPU_IntDisMeasStart) for CPU_IntDisMeasStart
    lib_mem.o(i.Mem_DynPoolBlkFree) refers to cpu_core.o(i.CPU_IntDisMeasStop) for CPU_IntDisMeasStop
    lib_mem.o(i.Mem_DynPoolBlkGet) refers to cpu_a.o(.text) for CPU_SR_Save
    lib_mem.o(i.Mem_DynPoolBlkGet) refers to cpu_core.o(i.CPU_IntDisMeasStart) for CPU_IntDisMeasStart
    lib_mem.o(i.Mem_DynPoolBlkGet) refers to cpu_core.o(i.CPU_IntDisMeasStop) for CPU_IntDisMeasStop
    lib_mem.o(i.Mem_DynPoolBlkGet) refers to lib_mem.o(i.Mem_SegAllocInternal) for Mem_SegAllocInternal
    lib_mem.o(i.Mem_DynPoolBlkNbrAvailGet) refers to cpu_a.o(.text) for CPU_SR_Save
    lib_mem.o(i.Mem_DynPoolBlkNbrAvailGet) refers to cpu_core.o(i.CPU_IntDisMeasStart) for CPU_IntDisMeasStart
    lib_mem.o(i.Mem_DynPoolBlkNbrAvailGet) refers to cpu_core.o(i.CPU_IntDisMeasStop) for CPU_IntDisMeasStop
    lib_mem.o(i.Mem_DynPoolCreate) refers to lib_mem.o(i.Mem_DynPoolCreateInternal) for Mem_DynPoolCreateInternal
    lib_mem.o(i.Mem_DynPoolCreate) refers to lib_mem.o(.bss) for Mem_SegHeap
    lib_mem.o(i.Mem_DynPoolCreateHW) refers to lib_mem.o(i.Mem_DynPoolCreateInternal) for Mem_DynPoolCreateInternal
    lib_mem.o(i.Mem_DynPoolCreateHW) refers to lib_mem.o(.bss) for Mem_SegHeap
    lib_mem.o(i.Mem_DynPoolCreateInternal) refers to lib_mem.o(i.Mem_SegAllocInternal) for Mem_SegAllocInternal
    lib_mem.o(i.Mem_HeapAlloc) refers to lib_mem.o(i.Mem_SegAllocInternal) for Mem_SegAllocInternal
    lib_mem.o(i.Mem_HeapAlloc) refers to lib_mem.o(.bss) for Mem_SegHeap
    lib_mem.o(i.Mem_HeapGetSizeRem) refers to lib_mem.o(i.Mem_SegRemSizeGet) for Mem_SegRemSizeGet
    lib_mem.o(i.Mem_HeapGetSizeRem) refers to lib_mem.o(.bss) for Mem_SegHeap
    lib_mem.o(i.Mem_Init) refers to lib_mem.o(i.Mem_SegCreate) for Mem_SegCreate
    lib_mem.o(i.Mem_Init) refers to cpu_core.o(i.CPU_SW_Exception) for CPU_SW_Exception
    lib_mem.o(i.Mem_Init) refers to lib_mem.o(.data) for Mem_SegHeadPtr
    lib_mem.o(i.Mem_Init) refers to lib_mem.o(.bss) for Mem_Heap
    lib_mem.o(i.Mem_Move) refers to lib_mem_a.o(.text) for Mem_Copy
    lib_mem.o(i.Mem_PoolBlkFree) refers to cpu_a.o(.text) for CPU_SR_Save
    lib_mem.o(i.Mem_PoolBlkFree) refers to cpu_core.o(i.CPU_IntDisMeasStart) for CPU_IntDisMeasStart
    lib_mem.o(i.Mem_PoolBlkFree) refers to cpu_core.o(i.CPU_IntDisMeasStop) for CPU_IntDisMeasStop
    lib_mem.o(i.Mem_PoolBlkGet) refers to cpu_a.o(.text) for CPU_SR_Save
    lib_mem.o(i.Mem_PoolBlkGet) refers to cpu_core.o(i.CPU_IntDisMeasStart) for CPU_IntDisMeasStart
    lib_mem.o(i.Mem_PoolBlkGet) refers to cpu_core.o(i.CPU_IntDisMeasStop) for CPU_IntDisMeasStop
    lib_mem.o(i.Mem_PoolBlkGetNbrAvail) refers to cpu_a.o(.text) for CPU_SR_Save
    lib_mem.o(i.Mem_PoolBlkGetNbrAvail) refers to cpu_core.o(i.CPU_IntDisMeasStart) for CPU_IntDisMeasStart
    lib_mem.o(i.Mem_PoolBlkGetNbrAvail) refers to cpu_core.o(i.CPU_IntDisMeasStop) for CPU_IntDisMeasStop
    lib_mem.o(i.Mem_PoolCreate) refers to lib_mem.o(i.Mem_PoolClr) for Mem_PoolClr
    lib_mem.o(i.Mem_PoolCreate) refers to cpu_a.o(.text) for CPU_SR_Save
    lib_mem.o(i.Mem_PoolCreate) refers to cpu_core.o(i.CPU_IntDisMeasStart) for CPU_IntDisMeasStart
    lib_mem.o(i.Mem_PoolCreate) refers to lib_mem.o(i.Mem_SegOverlapChkCritical) for Mem_SegOverlapChkCritical
    lib_mem.o(i.Mem_PoolCreate) refers to lib_mem.o(i.Mem_SegAllocExtCritical) for Mem_SegAllocExtCritical
    lib_mem.o(i.Mem_PoolCreate) refers to cpu_core.o(i.CPU_IntDisMeasStop) for CPU_IntDisMeasStop
    lib_mem.o(i.Mem_PoolCreate) refers to lib_mem.o(i.Mem_SegCreateCritical) for Mem_SegCreateCritical
    lib_mem.o(i.Mem_PoolCreate) refers to lib_mem.o(i.Mem_SegAllocInternal) for Mem_SegAllocInternal
    lib_mem.o(i.Mem_PoolCreate) refers to lib_mem.o(.bss) for Mem_SegHeap
    lib_mem.o(i.Mem_SegAlloc) refers to lib_mem.o(i.Mem_SegAllocInternal) for Mem_SegAllocInternal
    lib_mem.o(i.Mem_SegAlloc) refers to lib_mem.o(.bss) for Mem_SegHeap
    lib_mem.o(i.Mem_SegAllocExt) refers to lib_mem.o(i.Mem_SegAllocInternal) for Mem_SegAllocInternal
    lib_mem.o(i.Mem_SegAllocExt) refers to lib_mem.o(.bss) for Mem_SegHeap
    lib_mem.o(i.Mem_SegAllocHW) refers to lib_mem.o(i.Mem_SegAllocInternal) for Mem_SegAllocInternal
    lib_mem.o(i.Mem_SegAllocHW) refers to lib_mem.o(.bss) for Mem_SegHeap
    lib_mem.o(i.Mem_SegAllocInternal) refers to cpu_a.o(.text) for CPU_SR_Save
    lib_mem.o(i.Mem_SegAllocInternal) refers to cpu_core.o(i.CPU_IntDisMeasStart) for CPU_IntDisMeasStart
    lib_mem.o(i.Mem_SegAllocInternal) refers to lib_mem.o(i.Mem_SegAllocExtCritical) for Mem_SegAllocExtCritical
    lib_mem.o(i.Mem_SegAllocInternal) refers to cpu_core.o(i.CPU_IntDisMeasStop) for CPU_IntDisMeasStop
    lib_mem.o(i.Mem_SegClr) refers to cpu_a.o(.text) for CPU_SR_Save
    lib_mem.o(i.Mem_SegClr) refers to cpu_core.o(i.CPU_IntDisMeasStart) for CPU_IntDisMeasStart
    lib_mem.o(i.Mem_SegClr) refers to cpu_core.o(i.CPU_IntDisMeasStop) for CPU_IntDisMeasStop
    lib_mem.o(i.Mem_SegCreate) refers to cpu_a.o(.text) for CPU_SR_Save
    lib_mem.o(i.Mem_SegCreate) refers to cpu_core.o(i.CPU_IntDisMeasStart) for CPU_IntDisMeasStart
    lib_mem.o(i.Mem_SegCreate) refers to lib_mem.o(i.Mem_SegCreateCritical) for Mem_SegCreateCritical
    lib_mem.o(i.Mem_SegCreate) refers to cpu_core.o(i.CPU_IntDisMeasStop) for CPU_IntDisMeasStop
    lib_mem.o(i.Mem_SegCreateCritical) refers to lib_mem.o(.data) for Mem_SegHeadPtr
    lib_mem.o(i.Mem_SegOverlapChkCritical) refers to lib_mem.o(.data) for Mem_SegHeadPtr
    lib_mem.o(i.Mem_SegRemSizeGet) refers to cpu_a.o(.text) for CPU_SR_Save
    lib_mem.o(i.Mem_SegRemSizeGet) refers to cpu_core.o(i.CPU_IntDisMeasStart) for CPU_IntDisMeasStart
    lib_mem.o(i.Mem_SegRemSizeGet) refers to cpu_core.o(i.CPU_IntDisMeasStop) for CPU_IntDisMeasStop
    lib_mem.o(i.Mem_SegRemSizeGet) refers to lib_mem.o(.bss) for Mem_SegHeap
    os_cfg_app.o(.constdata) refers to os_cfg_app.o(.bss) for OSCfg_IdleTaskStk
    os_core.o(i.OSInit) refers to os_cpu_c.o(i.OSInitHook) for OSInitHook
    os_core.o(i.OSInit) refers to os_prio.o(i.OS_PrioInit) for OS_PrioInit
    os_core.o(i.OSInit) refers to os_core.o(i.OS_RdyListInit) for OS_RdyListInit
    os_core.o(i.OSInit) refers to os_flag.o(i.OS_FlagInit) for OS_FlagInit
    os_core.o(i.OSInit) refers to os_mem.o(i.OS_MemInit) for OS_MemInit
    os_core.o(i.OSInit) refers to os_msg.o(i.OS_MsgPoolInit) for OS_MsgPoolInit
    os_core.o(i.OSInit) refers to os_mutex.o(i.OS_MutexInit) for OS_MutexInit
    os_core.o(i.OSInit) refers to os_q.o(i.OS_QInit) for OS_QInit
    os_core.o(i.OSInit) refers to os_sem.o(i.OS_SemInit) for OS_SemInit
    os_core.o(i.OSInit) refers to os_task.o(i.OS_TaskInit) for OS_TaskInit
    os_core.o(i.OSInit) refers to os_core.o(i.OS_IdleTaskInit) for OS_IdleTaskInit
    os_core.o(i.OSInit) refers to os_tick.o(i.OS_TickTaskInit) for OS_TickTaskInit
    os_core.o(i.OSInit) refers to os_stat.o(i.OS_StatTaskInit) for OS_StatTaskInit
    os_core.o(i.OSInit) refers to os_tmr.o(i.OS_TmrInit) for OS_TmrInit
    os_core.o(i.OSInit) refers to os_dbg.o(i.OS_Dbg_Init) for OS_Dbg_Init
    os_core.o(i.OSInit) refers to os_cfg_app.o(i.OSCfg_Init) for OSCfg_Init
    os_core.o(i.OSInit) refers to os_var.o(.data) for OSIntNestingCtr
    os_core.o(i.OSInit) refers to os_cfg_app.o(.constdata) for OSCfg_ISRStkSize
    os_core.o(i.OSIntEnter) refers to os_var.o(.data) for OSRunning
    os_core.o(i.OSIntExit) refers to cpu_a.o(.text) for CPU_SR_Save
    os_core.o(i.OSIntExit) refers to os_prio.o(i.OS_PrioGetHighest) for OS_PrioGetHighest
    os_core.o(i.OSIntExit) refers to os_cpu_a.o(CODE) for OSIntCtxSw
    os_core.o(i.OSIntExit) refers to os_var.o(.data) for OSRunning
    os_core.o(i.OSIntExit) refers to os_var.o(.bss) for OSRdyList
    os_core.o(i.OSSched) refers to cpu_a.o(.text) for CPU_SR_Save
    os_core.o(i.OSSched) refers to os_prio.o(i.OS_PrioGetHighest) for OS_PrioGetHighest
    os_core.o(i.OSSched) refers to os_cpu_a.o(CODE) for OSCtxSw
    os_core.o(i.OSSched) refers to os_var.o(.data) for OSIntNestingCtr
    os_core.o(i.OSSched) refers to os_var.o(.bss) for OSRdyList
    os_core.o(i.OSSchedLock) refers to cpu_a.o(.text) for CPU_SR_Save
    os_core.o(i.OSSchedLock) refers to cpu_core.o(i.CPU_IntDisMeasStart) for CPU_IntDisMeasStart
    os_core.o(i.OSSchedLock) refers to cpu_core.o(i.CPU_IntDisMeasStop) for CPU_IntDisMeasStop
    os_core.o(i.OSSchedLock) refers to os_var.o(.data) for OSRunning
    os_core.o(i.OSSchedUnlock) refers to cpu_a.o(.text) for CPU_SR_Save
    os_core.o(i.OSSchedUnlock) refers to cpu_core.o(i.CPU_IntDisMeasStart) for CPU_IntDisMeasStart
    os_core.o(i.OSSchedUnlock) refers to cpu_core.o(i.CPU_IntDisMeasStop) for CPU_IntDisMeasStop
    os_core.o(i.OSSchedUnlock) refers to os_core.o(i.OSSched) for OSSched
    os_core.o(i.OSSchedUnlock) refers to os_var.o(.data) for OSRunning
    os_core.o(i.OSStart) refers to os_prio.o(i.OS_PrioGetHighest) for OS_PrioGetHighest
    os_core.o(i.OSStart) refers to os_cpu_a.o(CODE) for OSStartHighRdy
    os_core.o(i.OSStart) refers to os_var.o(.data) for OSRunning
    os_core.o(i.OSStart) refers to os_var.o(.bss) for OSRdyList
    os_core.o(i.OS_IdleTask) refers to cpu_a.o(.text) for CPU_SR_Save
    os_core.o(i.OS_IdleTask) refers to cpu_core.o(i.CPU_IntDisMeasStart) for CPU_IntDisMeasStart
    os_core.o(i.OS_IdleTask) refers to cpu_core.o(i.CPU_IntDisMeasStop) for CPU_IntDisMeasStop
    os_core.o(i.OS_IdleTask) refers to os_cpu_c.o(i.OSIdleTaskHook) for OSIdleTaskHook
    os_core.o(i.OS_IdleTask) refers to os_var.o(.data) for OSIdleTaskCtr
    os_core.o(i.OS_IdleTaskInit) refers to os_task.o(i.OSTaskCreate) for OSTaskCreate
    os_core.o(i.OS_IdleTaskInit) refers to os_var.o(.data) for OSIdleTaskCtr
    os_core.o(i.OS_IdleTaskInit) refers to os_cfg_app.o(.constdata) for OSCfg_IdleTaskStkSize
    os_core.o(i.OS_IdleTaskInit) refers to os_core.o(i.OS_IdleTask) for OS_IdleTask
    os_core.o(i.OS_IdleTaskInit) refers to os_var.o(.bss) for OSIdleTaskTCB
    os_core.o(i.OS_Pend) refers to os_core.o(i.OS_TaskBlock) for OS_TaskBlock
    os_core.o(i.OS_Pend) refers to os_core.o(i.OS_PendDataInit) for OS_PendDataInit
    os_core.o(i.OS_Pend) refers to os_core.o(i.OS_PendListInsertPrio) for OS_PendListInsertPrio
    os_core.o(i.OS_Pend) refers to os_core.o(i.OS_PendDbgNameAdd) for OS_PendDbgNameAdd
    os_core.o(i.OS_Pend) refers to os_var.o(.data) for OSTCBCurPtr
    os_core.o(i.OS_PendAbort) refers to os_core.o(i.OS_PendAbort1) for OS_PendAbort1
    os_core.o(i.OS_PendAbort) refers to os_core.o(i.OS_PendListRemove) for OS_PendListRemove
    os_core.o(i.OS_PendAbort) refers to os_tick.o(i.OS_TickListRemove) for OS_TickListRemove
    os_core.o(i.OS_PendAbort) refers to os_core.o(i.OS_RdyListInsert) for OS_RdyListInsert
    os_core.o(i.OS_PendListChangePrio) refers to os_core.o(i.OS_PendListRemove1) for OS_PendListRemove1
    os_core.o(i.OS_PendListChangePrio) refers to os_core.o(i.OS_PendListInsertPrio) for OS_PendListInsertPrio
    os_core.o(i.OS_PendListRemove) refers to os_core.o(i.OS_PendListRemove1) for OS_PendListRemove1
    os_core.o(i.OS_PendObjDel) refers to os_core.o(i.OS_PendObjDel1) for OS_PendObjDel1
    os_core.o(i.OS_PendObjDel) refers to os_core.o(i.OS_PendListRemove) for OS_PendListRemove
    os_core.o(i.OS_PendObjDel) refers to os_tick.o(i.OS_TickListRemove) for OS_TickListRemove
    os_core.o(i.OS_PendObjDel) refers to os_core.o(i.OS_RdyListInsert) for OS_RdyListInsert
    os_core.o(i.OS_Post) refers to os_core.o(i.OS_Post1) for OS_Post1
    os_core.o(i.OS_Post) refers to os_core.o(i.OS_PendListRemove) for OS_PendListRemove
    os_core.o(i.OS_Post) refers to os_core.o(i.OS_PendDbgNameRemove) for OS_PendDbgNameRemove
    os_core.o(i.OS_Post) refers to os_tick.o(i.OS_TickListRemove) for OS_TickListRemove
    os_core.o(i.OS_Post) refers to os_core.o(i.OS_RdyListInsert) for OS_RdyListInsert
    os_core.o(i.OS_RdyListInit) refers to os_var.o(.bss) for OSRdyList
    os_core.o(i.OS_RdyListInsert) refers to os_prio.o(i.OS_PrioInsert) for OS_PrioInsert
    os_core.o(i.OS_RdyListInsert) refers to os_core.o(i.OS_RdyListInsertTail) for OS_RdyListInsertTail
    os_core.o(i.OS_RdyListInsert) refers to os_core.o(i.OS_RdyListInsertHead) for OS_RdyListInsertHead
    os_core.o(i.OS_RdyListInsert) refers to os_var.o(.data) for OSPrioCur
    os_core.o(i.OS_RdyListInsertHead) refers to os_var.o(.bss) for OSRdyList
    os_core.o(i.OS_RdyListInsertTail) refers to os_var.o(.bss) for OSRdyList
    os_core.o(i.OS_RdyListRemove) refers to os_prio.o(i.OS_PrioRemove) for OS_PrioRemove
    os_core.o(i.OS_RdyListRemove) refers to os_var.o(.bss) for OSRdyList
    os_core.o(i.OS_TaskBlock) refers to os_tick.o(i.OS_TickListInsert) for OS_TickListInsert
    os_core.o(i.OS_TaskBlock) refers to os_core.o(i.OS_RdyListRemove) for OS_RdyListRemove
    os_core.o(i.OS_TaskBlock) refers to os_var.o(.data) for OSTickListTimeout
    os_dbg.o(i.OS_Dbg_Init) refers to os_dbg.o(.constdata) for OSDbg_DbgEn
    os_flag.o(i.OSFlagCreate) refers to cpu_a.o(.text) for CPU_SR_Save
    os_flag.o(i.OSFlagCreate) refers to cpu_core.o(i.CPU_IntDisMeasStart) for CPU_IntDisMeasStart
    os_flag.o(i.OSFlagCreate) refers to os_core.o(i.OS_PendListInit) for OS_PendListInit
    os_flag.o(i.OSFlagCreate) refers to os_flag.o(i.OS_FlagDbgListAdd) for OS_FlagDbgListAdd
    os_flag.o(i.OSFlagCreate) refers to cpu_core.o(i.CPU_IntDisMeasStop) for CPU_IntDisMeasStop
    os_flag.o(i.OSFlagCreate) refers to os_var.o(.data) for OSFlagQty
    os_flag.o(i.OSFlagPend) refers to cpu_a.o(.text) for CPU_SR_Save
    os_flag.o(i.OSFlagPend) refers to cpu_core.o(i.CPU_IntDisMeasStart) for CPU_IntDisMeasStart
    os_flag.o(i.OSFlagPend) refers to cpu_core.o(i.CPU_IntDisMeasStop) for CPU_IntDisMeasStop
    os_flag.o(i.OSFlagPend) refers to os_flag.o(i.OS_FlagBlock) for OS_FlagBlock
    os_flag.o(i.OSFlagPend) refers to os_core.o(i.OSSched) for OSSched
    os_flag.o(i.OSFlagPend) refers to os_var.o(.data) for OSTCBCurPtr
    os_flag.o(i.OSFlagPendGetFlagsRdy) refers to cpu_a.o(.text) for CPU_SR_Save
    os_flag.o(i.OSFlagPendGetFlagsRdy) refers to cpu_core.o(i.CPU_IntDisMeasStart) for CPU_IntDisMeasStart
    os_flag.o(i.OSFlagPendGetFlagsRdy) refers to cpu_core.o(i.CPU_IntDisMeasStop) for CPU_IntDisMeasStop
    os_flag.o(i.OSFlagPendGetFlagsRdy) refers to os_var.o(.data) for OSTCBCurPtr
    os_flag.o(i.OSFlagPost) refers to bsp.o(i.CPU_TS_TmrRd) for CPU_TS_TmrRd
    os_flag.o(i.OSFlagPost) refers to os_flag.o(i.OS_FlagPost) for OS_FlagPost
    os_flag.o(i.OS_FlagBlock) refers to os_core.o(i.OS_Pend) for OS_Pend
    os_flag.o(i.OS_FlagBlock) refers to os_var.o(.data) for OSTCBCurPtr
    os_flag.o(i.OS_FlagClr) refers to os_core.o(i.OS_PendListInit) for OS_PendListInit
    os_flag.o(i.OS_FlagDbgListAdd) refers to os_var.o(.data) for OSFlagDbgListPtr
    os_flag.o(i.OS_FlagDbgListRemove) refers to os_var.o(.data) for OSFlagDbgListPtr
    os_flag.o(i.OS_FlagInit) refers to os_var.o(.data) for OSFlagDbgListPtr
    os_flag.o(i.OS_FlagPost) refers to cpu_a.o(.text) for CPU_SR_Save
    os_flag.o(i.OS_FlagPost) refers to cpu_core.o(i.CPU_IntDisMeasStart) for CPU_IntDisMeasStart
    os_flag.o(i.OS_FlagPost) refers to cpu_core.o(i.CPU_IntDisMeasStop) for CPU_IntDisMeasStop
    os_flag.o(i.OS_FlagPost) refers to os_flag.o(i.OS_FlagTaskRdy) for OS_FlagTaskRdy
    os_flag.o(i.OS_FlagPost) refers to os_core.o(i.OSSched) for OSSched
    os_flag.o(i.OS_FlagTaskRdy) refers to os_tick.o(i.OS_TickListRemove) for OS_TickListRemove
    os_flag.o(i.OS_FlagTaskRdy) refers to os_core.o(i.OS_RdyListInsert) for OS_RdyListInsert
    os_flag.o(i.OS_FlagTaskRdy) refers to os_core.o(i.OS_PendListRemove) for OS_PendListRemove
    os_mem.o(i.OSMemCreate) refers to cpu_a.o(.text) for CPU_SR_Save
    os_mem.o(i.OSMemCreate) refers to cpu_core.o(i.CPU_IntDisMeasStart) for CPU_IntDisMeasStart
    os_mem.o(i.OSMemCreate) refers to os_mem.o(i.OS_MemDbgListAdd) for OS_MemDbgListAdd
    os_mem.o(i.OSMemCreate) refers to cpu_core.o(i.CPU_IntDisMeasStop) for CPU_IntDisMeasStop
    os_mem.o(i.OSMemCreate) refers to os_var.o(.data) for OSMemQty
    os_mem.o(i.OSMemGet) refers to cpu_a.o(.text) for CPU_SR_Save
    os_mem.o(i.OSMemGet) refers to cpu_core.o(i.CPU_IntDisMeasStart) for CPU_IntDisMeasStart
    os_mem.o(i.OSMemGet) refers to cpu_core.o(i.CPU_IntDisMeasStop) for CPU_IntDisMeasStop
    os_mem.o(i.OSMemPut) refers to cpu_a.o(.text) for CPU_SR_Save
    os_mem.o(i.OSMemPut) refers to cpu_core.o(i.CPU_IntDisMeasStart) for CPU_IntDisMeasStart
    os_mem.o(i.OSMemPut) refers to cpu_core.o(i.CPU_IntDisMeasStop) for CPU_IntDisMeasStop
    os_mem.o(i.OS_MemDbgListAdd) refers to os_var.o(.data) for OSMemDbgListPtr
    os_mem.o(i.OS_MemInit) refers to os_var.o(.data) for OSMemDbgListPtr
    os_msg.o(i.OS_MsgPoolInit) refers to os_cfg_app.o(.constdata) for OSCfg_MsgPoolBasePtr
    os_msg.o(i.OS_MsgPoolInit) refers to os_var.o(.bss) for OSMsgPool
    os_msg.o(i.OS_MsgQFreeAll) refers to os_var.o(.bss) for OSMsgPool
    os_msg.o(i.OS_MsgQGet) refers to os_var.o(.bss) for OSMsgPool
    os_msg.o(i.OS_MsgQPut) refers to os_var.o(.bss) for OSMsgPool
    os_mutex.o(i.OSMutexCreate) refers to cpu_a.o(.text) for CPU_SR_Save
    os_mutex.o(i.OSMutexCreate) refers to cpu_core.o(i.CPU_IntDisMeasStart) for CPU_IntDisMeasStart
    os_mutex.o(i.OSMutexCreate) refers to os_core.o(i.OS_PendListInit) for OS_PendListInit
    os_mutex.o(i.OSMutexCreate) refers to os_mutex.o(i.OS_MutexDbgListAdd) for OS_MutexDbgListAdd
    os_mutex.o(i.OSMutexCreate) refers to cpu_core.o(i.CPU_IntDisMeasStop) for CPU_IntDisMeasStop
    os_mutex.o(i.OSMutexCreate) refers to os_var.o(.data) for OSMutexQty
    os_mutex.o(i.OSMutexPend) refers to cpu_a.o(.text) for CPU_SR_Save
    os_mutex.o(i.OSMutexPend) refers to cpu_core.o(i.CPU_IntDisMeasStart) for CPU_IntDisMeasStart
    os_mutex.o(i.OSMutexPend) refers to os_mutex.o(i.OS_MutexGrpAdd) for OS_MutexGrpAdd
    os_mutex.o(i.OSMutexPend) refers to cpu_core.o(i.CPU_IntDisMeasStop) for CPU_IntDisMeasStop
    os_mutex.o(i.OSMutexPend) refers to os_task.o(i.OS_TaskChangePrio) for OS_TaskChangePrio
    os_mutex.o(i.OSMutexPend) refers to os_core.o(i.OS_Pend) for OS_Pend
    os_mutex.o(i.OSMutexPend) refers to os_core.o(i.OSSched) for OSSched
    os_mutex.o(i.OSMutexPend) refers to os_var.o(.data) for OSTCBCurPtr
    os_mutex.o(i.OSMutexPost) refers to cpu_a.o(.text) for CPU_SR_Save
    os_mutex.o(i.OSMutexPost) refers to cpu_core.o(i.CPU_IntDisMeasStart) for CPU_IntDisMeasStart
    os_mutex.o(i.OSMutexPost) refers to cpu_core.o(i.CPU_IntDisMeasStop) for CPU_IntDisMeasStop
    os_mutex.o(i.OSMutexPost) refers to bsp.o(i.CPU_TS_TmrRd) for CPU_TS_TmrRd
    os_mutex.o(i.OSMutexPost) refers to os_mutex.o(i.OS_MutexGrpRemove) for OS_MutexGrpRemove
    os_mutex.o(i.OSMutexPost) refers to os_mutex.o(i.OS_MutexGrpPrioFindHighest) for OS_MutexGrpPrioFindHighest
    os_mutex.o(i.OSMutexPost) refers to os_core.o(i.OS_RdyListRemove) for OS_RdyListRemove
    os_mutex.o(i.OSMutexPost) refers to os_prio.o(i.OS_PrioInsert) for OS_PrioInsert
    os_mutex.o(i.OSMutexPost) refers to os_core.o(i.OS_RdyListInsertTail) for OS_RdyListInsertTail
    os_mutex.o(i.OSMutexPost) refers to os_mutex.o(i.OS_MutexGrpAdd) for OS_MutexGrpAdd
    os_mutex.o(i.OSMutexPost) refers to os_core.o(i.OS_Post) for OS_Post
    os_mutex.o(i.OSMutexPost) refers to os_core.o(i.OSSched) for OSSched
    os_mutex.o(i.OSMutexPost) refers to os_var.o(.data) for OSTCBCurPtr
    os_mutex.o(i.OS_MutexClr) refers to os_core.o(i.OS_PendListInit) for OS_PendListInit
    os_mutex.o(i.OS_MutexDbgListAdd) refers to os_var.o(.data) for OSMutexDbgListPtr
    os_mutex.o(i.OS_MutexDbgListRemove) refers to os_var.o(.data) for OSMutexDbgListPtr
    os_mutex.o(i.OS_MutexGrpPostAll) refers to bsp.o(i.CPU_TS_TmrRd) for CPU_TS_TmrRd
    os_mutex.o(i.OS_MutexGrpPostAll) refers to os_mutex.o(i.OS_MutexGrpRemove) for OS_MutexGrpRemove
    os_mutex.o(i.OS_MutexGrpPostAll) refers to os_mutex.o(i.OS_MutexGrpAdd) for OS_MutexGrpAdd
    os_mutex.o(i.OS_MutexGrpPostAll) refers to os_core.o(i.OS_Post) for OS_Post
    os_mutex.o(i.OS_MutexInit) refers to os_var.o(.data) for OSMutexDbgListPtr
    os_pend_multi.o(i.OSPendMulti) refers to os_pend_multi.o(i.OS_PendMultiValidate) for OS_PendMultiValidate
    os_pend_multi.o(i.OSPendMulti) refers to cpu_a.o(.text) for CPU_SR_Save
    os_pend_multi.o(i.OSPendMulti) refers to cpu_core.o(i.CPU_IntDisMeasStart) for CPU_IntDisMeasStart
    os_pend_multi.o(i.OSPendMulti) refers to os_pend_multi.o(i.OS_PendMultiGetRdy) for OS_PendMultiGetRdy
    os_pend_multi.o(i.OSPendMulti) refers to cpu_core.o(i.CPU_IntDisMeasStop) for CPU_IntDisMeasStop
    os_pend_multi.o(i.OSPendMulti) refers to os_pend_multi.o(i.OS_PendMultiWait) for OS_PendMultiWait
    os_pend_multi.o(i.OSPendMulti) refers to os_core.o(i.OSSched) for OSSched
    os_pend_multi.o(i.OSPendMulti) refers to os_var.o(.data) for OSSchedLockNestingCtr
    os_pend_multi.o(i.OS_PendMultiGetRdy) refers to os_msg.o(i.OS_MsgQGet) for OS_MsgQGet
    os_pend_multi.o(i.OS_PendMultiWait) refers to os_core.o(i.OS_TaskBlock) for OS_TaskBlock
    os_pend_multi.o(i.OS_PendMultiWait) refers to os_core.o(i.OS_PendListInsertPrio) for OS_PendListInsertPrio
    os_pend_multi.o(i.OS_PendMultiWait) refers to os_var.o(.data) for OSTCBCurPtr
    os_prio.o(i.OS_PrioGetHighest) refers to cpu_a.o(.text) for CPU_CntLeadZeros
    os_prio.o(i.OS_PrioGetHighest) refers to os_prio.o(.data) for OSPrioTbl
    os_prio.o(i.OS_PrioInit) refers to os_prio.o(.data) for OSPrioTbl
    os_prio.o(i.OS_PrioInsert) refers to os_prio.o(.data) for OSPrioTbl
    os_prio.o(i.OS_PrioRemove) refers to os_prio.o(.data) for OSPrioTbl
    os_q.o(i.OSQCreate) refers to cpu_a.o(.text) for CPU_SR_Save
    os_q.o(i.OSQCreate) refers to cpu_core.o(i.CPU_IntDisMeasStart) for CPU_IntDisMeasStart
    os_q.o(i.OSQCreate) refers to os_msg.o(i.OS_MsgQInit) for OS_MsgQInit
    os_q.o(i.OSQCreate) refers to os_core.o(i.OS_PendListInit) for OS_PendListInit
    os_q.o(i.OSQCreate) refers to os_q.o(i.OS_QDbgListAdd) for OS_QDbgListAdd
    os_q.o(i.OSQCreate) refers to cpu_core.o(i.CPU_IntDisMeasStop) for CPU_IntDisMeasStop
    os_q.o(i.OSQCreate) refers to os_var.o(.data) for OSQQty
    os_q.o(i.OSQDel) refers to cpu_a.o(.text) for CPU_SR_Save
    os_q.o(i.OSQDel) refers to cpu_core.o(i.CPU_IntDisMeasStart) for CPU_IntDisMeasStart
    os_q.o(i.OSQDel) refers to os_q.o(i.OS_QDbgListRemove) for OS_QDbgListRemove
    os_q.o(i.OSQDel) refers to os_q.o(i.OS_QClr) for OS_QClr
    os_q.o(i.OSQDel) refers to cpu_core.o(i.CPU_IntDisMeasStop) for CPU_IntDisMeasStop
    os_q.o(i.OSQDel) refers to bsp.o(i.CPU_TS_TmrRd) for CPU_TS_TmrRd
    os_q.o(i.OSQDel) refers to os_core.o(i.OS_PendObjDel) for OS_PendObjDel
    os_q.o(i.OSQDel) refers to os_core.o(i.OSSched) for OSSched
    os_q.o(i.OSQDel) refers to os_var.o(.data) for OSQQty
    os_q.o(i.OSQFlush) refers to cpu_a.o(.text) for CPU_SR_Save
    os_q.o(i.OSQFlush) refers to cpu_core.o(i.CPU_IntDisMeasStart) for CPU_IntDisMeasStart
    os_q.o(i.OSQFlush) refers to os_msg.o(i.OS_MsgQFreeAll) for OS_MsgQFreeAll
    os_q.o(i.OSQFlush) refers to cpu_core.o(i.CPU_IntDisMeasStop) for CPU_IntDisMeasStop
    os_q.o(i.OSQPend) refers to cpu_a.o(.text) for CPU_SR_Save
    os_q.o(i.OSQPend) refers to cpu_core.o(i.CPU_IntDisMeasStart) for CPU_IntDisMeasStart
    os_q.o(i.OSQPend) refers to os_msg.o(i.OS_MsgQGet) for OS_MsgQGet
    os_q.o(i.OSQPend) refers to cpu_core.o(i.CPU_IntDisMeasStop) for CPU_IntDisMeasStop
    os_q.o(i.OSQPend) refers to os_core.o(i.OS_Pend) for OS_Pend
    os_q.o(i.OSQPend) refers to os_core.o(i.OSSched) for OSSched
    os_q.o(i.OSQPend) refers to os_var.o(.data) for OSSchedLockNestingCtr
    os_q.o(i.OSQPendAbort) refers to cpu_a.o(.text) for CPU_SR_Save
    os_q.o(i.OSQPendAbort) refers to cpu_core.o(i.CPU_IntDisMeasStart) for CPU_IntDisMeasStart
    os_q.o(i.OSQPendAbort) refers to cpu_core.o(i.CPU_IntDisMeasStop) for CPU_IntDisMeasStop
    os_q.o(i.OSQPendAbort) refers to bsp.o(i.CPU_TS_TmrRd) for CPU_TS_TmrRd
    os_q.o(i.OSQPendAbort) refers to os_core.o(i.OS_PendAbort) for OS_PendAbort
    os_q.o(i.OSQPendAbort) refers to os_core.o(i.OSSched) for OSSched
    os_q.o(i.OSQPost) refers to bsp.o(i.CPU_TS_TmrRd) for CPU_TS_TmrRd
    os_q.o(i.OSQPost) refers to os_q.o(i.OS_QPost) for OS_QPost
    os_q.o(i.OS_QClr) refers to os_msg.o(i.OS_MsgQFreeAll) for OS_MsgQFreeAll
    os_q.o(i.OS_QClr) refers to os_msg.o(i.OS_MsgQInit) for OS_MsgQInit
    os_q.o(i.OS_QClr) refers to os_core.o(i.OS_PendListInit) for OS_PendListInit
    os_q.o(i.OS_QDbgListAdd) refers to os_var.o(.data) for OSQDbgListPtr
    os_q.o(i.OS_QDbgListRemove) refers to os_var.o(.data) for OSQDbgListPtr
    os_q.o(i.OS_QInit) refers to os_var.o(.data) for OSQDbgListPtr
    os_q.o(i.OS_QPost) refers to cpu_a.o(.text) for CPU_SR_Save
    os_q.o(i.OS_QPost) refers to cpu_core.o(i.CPU_IntDisMeasStart) for CPU_IntDisMeasStart
    os_q.o(i.OS_QPost) refers to os_msg.o(i.OS_MsgQPut) for OS_MsgQPut
    os_q.o(i.OS_QPost) refers to cpu_core.o(i.CPU_IntDisMeasStop) for CPU_IntDisMeasStop
    os_q.o(i.OS_QPost) refers to os_core.o(i.OS_Post) for OS_Post
    os_q.o(i.OS_QPost) refers to os_core.o(i.OSSched) for OSSched
    os_sem.o(i.OSSemCreate) refers to cpu_a.o(.text) for CPU_SR_Save
    os_sem.o(i.OSSemCreate) refers to cpu_core.o(i.CPU_IntDisMeasStart) for CPU_IntDisMeasStart
    os_sem.o(i.OSSemCreate) refers to os_core.o(i.OS_PendListInit) for OS_PendListInit
    os_sem.o(i.OSSemCreate) refers to os_sem.o(i.OS_SemDbgListAdd) for OS_SemDbgListAdd
    os_sem.o(i.OSSemCreate) refers to cpu_core.o(i.CPU_IntDisMeasStop) for CPU_IntDisMeasStop
    os_sem.o(i.OSSemCreate) refers to os_var.o(.data) for OSSemQty
    os_sem.o(i.OSSemDel) refers to cpu_a.o(.text) for CPU_SR_Save
    os_sem.o(i.OSSemDel) refers to cpu_core.o(i.CPU_IntDisMeasStart) for CPU_IntDisMeasStart
    os_sem.o(i.OSSemDel) refers to os_sem.o(i.OS_SemDbgListRemove) for OS_SemDbgListRemove
    os_sem.o(i.OSSemDel) refers to os_sem.o(i.OS_SemClr) for OS_SemClr
    os_sem.o(i.OSSemDel) refers to cpu_core.o(i.CPU_IntDisMeasStop) for CPU_IntDisMeasStop
    os_sem.o(i.OSSemDel) refers to bsp.o(i.CPU_TS_TmrRd) for CPU_TS_TmrRd
    os_sem.o(i.OSSemDel) refers to os_core.o(i.OS_PendObjDel) for OS_PendObjDel
    os_sem.o(i.OSSemDel) refers to os_core.o(i.OSSched) for OSSched
    os_sem.o(i.OSSemDel) refers to os_var.o(.data) for OSSemQty
    os_sem.o(i.OSSemPend) refers to cpu_a.o(.text) for CPU_SR_Save
    os_sem.o(i.OSSemPend) refers to cpu_core.o(i.CPU_IntDisMeasStart) for CPU_IntDisMeasStart
    os_sem.o(i.OSSemPend) refers to cpu_core.o(i.CPU_IntDisMeasStop) for CPU_IntDisMeasStop
    os_sem.o(i.OSSemPend) refers to os_core.o(i.OS_Pend) for OS_Pend
    os_sem.o(i.OSSemPend) refers to os_core.o(i.OSSched) for OSSched
    os_sem.o(i.OSSemPend) refers to os_var.o(.data) for OSSchedLockNestingCtr
    os_sem.o(i.OSSemPendAbort) refers to cpu_a.o(.text) for CPU_SR_Save
    os_sem.o(i.OSSemPendAbort) refers to cpu_core.o(i.CPU_IntDisMeasStart) for CPU_IntDisMeasStart
    os_sem.o(i.OSSemPendAbort) refers to cpu_core.o(i.CPU_IntDisMeasStop) for CPU_IntDisMeasStop
    os_sem.o(i.OSSemPendAbort) refers to bsp.o(i.CPU_TS_TmrRd) for CPU_TS_TmrRd
    os_sem.o(i.OSSemPendAbort) refers to os_core.o(i.OS_PendAbort) for OS_PendAbort
    os_sem.o(i.OSSemPendAbort) refers to os_core.o(i.OSSched) for OSSched
    os_sem.o(i.OSSemPost) refers to bsp.o(i.CPU_TS_TmrRd) for CPU_TS_TmrRd
    os_sem.o(i.OSSemPost) refers to os_sem.o(i.OS_SemPost) for OS_SemPost
    os_sem.o(i.OSSemSet) refers to cpu_a.o(.text) for CPU_SR_Save
    os_sem.o(i.OSSemSet) refers to cpu_core.o(i.CPU_IntDisMeasStart) for CPU_IntDisMeasStart
    os_sem.o(i.OSSemSet) refers to cpu_core.o(i.CPU_IntDisMeasStop) for CPU_IntDisMeasStop
    os_sem.o(i.OS_SemClr) refers to os_core.o(i.OS_PendListInit) for OS_PendListInit
    os_sem.o(i.OS_SemDbgListAdd) refers to os_var.o(.data) for OSSemDbgListPtr
    os_sem.o(i.OS_SemDbgListRemove) refers to os_var.o(.data) for OSSemDbgListPtr
    os_sem.o(i.OS_SemInit) refers to os_var.o(.data) for OSSemDbgListPtr
    os_sem.o(i.OS_SemPost) refers to cpu_a.o(.text) for CPU_SR_Save
    os_sem.o(i.OS_SemPost) refers to cpu_core.o(i.CPU_IntDisMeasStart) for CPU_IntDisMeasStart
    os_sem.o(i.OS_SemPost) refers to cpu_core.o(i.CPU_IntDisMeasStop) for CPU_IntDisMeasStop
    os_sem.o(i.OS_SemPost) refers to os_core.o(i.OS_Post) for OS_Post
    os_sem.o(i.OS_SemPost) refers to os_core.o(i.OSSched) for OSSched
    os_stat.o(i.OSStatReset) refers to cpu_a.o(.text) for CPU_SR_Save
    os_stat.o(i.OSStatReset) refers to cpu_core.o(i.CPU_IntDisMeasStart) for CPU_IntDisMeasStart
    os_stat.o(i.OSStatReset) refers to cpu_core.o(i.CPU_IntDisMeasStop) for CPU_IntDisMeasStop
    os_stat.o(i.OSStatReset) refers to bsp.o(i.CPU_TS_TmrRd) for CPU_TS_TmrRd
    os_stat.o(i.OSStatReset) refers to os_var.o(.data) for OSStatTaskCPUUsageMax
    os_stat.o(i.OSStatReset) refers to os_var.o(.bss) for OSMsgPool
    os_stat.o(i.OSStatTaskCPUUsageInit) refers to os_task.o(i.OSTaskSuspend) for OSTaskSuspend
    os_stat.o(i.OSStatTaskCPUUsageInit) refers to os_time.o(i.OSTimeDly) for OSTimeDly
    os_stat.o(i.OSStatTaskCPUUsageInit) refers to cpu_a.o(.text) for CPU_SR_Save
    os_stat.o(i.OSStatTaskCPUUsageInit) refers to cpu_core.o(i.CPU_IntDisMeasStart) for CPU_IntDisMeasStart
    os_stat.o(i.OSStatTaskCPUUsageInit) refers to cpu_core.o(i.CPU_IntDisMeasStop) for CPU_IntDisMeasStop
    os_stat.o(i.OSStatTaskCPUUsageInit) refers to os_task.o(i.OSTaskResume) for OSTaskResume
    os_stat.o(i.OSStatTaskCPUUsageInit) refers to os_var.o(.bss) for OSTmrTaskTCB
    os_stat.o(i.OSStatTaskCPUUsageInit) refers to os_var.o(.data) for OSStatTaskCtr
    os_stat.o(i.OSStatTaskCPUUsageInit) refers to os_cfg_app.o(.constdata) for OSCfg_TickRate_Hz
    os_stat.o(i.OS_StatTask) refers to os_time.o(i.OSTimeDly) for OSTimeDly
    os_stat.o(i.OS_StatTask) refers to os_stat.o(i.OSStatReset) for OSStatReset
    os_stat.o(i.OS_StatTask) refers to bsp.o(i.CPU_TS_TmrRd) for CPU_TS_TmrRd
    os_stat.o(i.OS_StatTask) refers to cpu_core.o(i.CPU_IntDisMeasMaxGet) for CPU_IntDisMeasMaxGet
    os_stat.o(i.OS_StatTask) refers to cpu_a.o(.text) for CPU_SR_Save
    os_stat.o(i.OS_StatTask) refers to cpu_core.o(i.CPU_IntDisMeasStart) for CPU_IntDisMeasStart
    os_stat.o(i.OS_StatTask) refers to cpu_core.o(i.CPU_IntDisMeasStop) for CPU_IntDisMeasStop
    os_stat.o(i.OS_StatTask) refers to os_cpu_c.o(i.OSStatTaskHook) for OSStatTaskHook
    os_stat.o(i.OS_StatTask) refers to os_task.o(i.OSTaskStkChk) for OSTaskStkChk
    os_stat.o(i.OS_StatTask) refers to os_cfg_app.o(.constdata) for OSCfg_StatTaskRate_Hz
    os_stat.o(i.OS_StatTask) refers to os_var.o(.data) for OSStatTaskRdy
    os_stat.o(i.OS_StatTaskInit) refers to os_task.o(i.OSTaskCreate) for OSTaskCreate
    os_stat.o(i.OS_StatTaskInit) refers to os_var.o(.data) for OSStatTaskCtr
    os_stat.o(i.OS_StatTaskInit) refers to os_cfg_app.o(.constdata) for OSCfg_StatTaskStkBasePtr
    os_stat.o(i.OS_StatTaskInit) refers to os_stat.o(i.OS_StatTask) for OS_StatTask
    os_stat.o(i.OS_StatTaskInit) refers to os_var.o(.bss) for OSStatTaskTCB
    os_task.o(i.OSTaskChangePrio) refers to cpu_a.o(.text) for CPU_SR_Save
    os_task.o(i.OSTaskChangePrio) refers to cpu_core.o(i.CPU_IntDisMeasStart) for CPU_IntDisMeasStart
    os_task.o(i.OSTaskChangePrio) refers to cpu_core.o(i.CPU_IntDisMeasStop) for CPU_IntDisMeasStop
    os_task.o(i.OSTaskChangePrio) refers to os_mutex.o(i.OS_MutexGrpPrioFindHighest) for OS_MutexGrpPrioFindHighest
    os_task.o(i.OSTaskChangePrio) refers to os_task.o(i.OS_TaskChangePrio) for OS_TaskChangePrio
    os_task.o(i.OSTaskChangePrio) refers to os_core.o(i.OSSched) for OSSched
    os_task.o(i.OSTaskChangePrio) refers to os_var.o(.data) for OSTCBCurPtr
    os_task.o(i.OSTaskCreate) refers to os_task.o(i.OS_TaskInitTCB) for OS_TaskInitTCB
    os_task.o(i.OSTaskCreate) refers to os_cpu_c.o(i.OSTaskStkInit) for OSTaskStkInit
    os_task.o(i.OSTaskCreate) refers to os_msg.o(i.OS_MsgQInit) for OS_MsgQInit
    os_task.o(i.OSTaskCreate) refers to os_cpu_c.o(i.OSTaskCreateHook) for OSTaskCreateHook
    os_task.o(i.OSTaskCreate) refers to cpu_a.o(.text) for CPU_SR_Save
    os_task.o(i.OSTaskCreate) refers to cpu_core.o(i.CPU_IntDisMeasStart) for CPU_IntDisMeasStart
    os_task.o(i.OSTaskCreate) refers to os_prio.o(i.OS_PrioInsert) for OS_PrioInsert
    os_task.o(i.OSTaskCreate) refers to os_core.o(i.OS_RdyListInsertTail) for OS_RdyListInsertTail
    os_task.o(i.OSTaskCreate) refers to os_task.o(i.OS_TaskDbgListAdd) for OS_TaskDbgListAdd
    os_task.o(i.OSTaskCreate) refers to cpu_core.o(i.CPU_IntDisMeasStop) for CPU_IntDisMeasStop
    os_task.o(i.OSTaskCreate) refers to os_core.o(i.OSSched) for OSSched
    os_task.o(i.OSTaskCreate) refers to os_var.o(.bss) for OSIdleTaskTCB
    os_task.o(i.OSTaskCreate) refers to os_var.o(.data) for OSTaskQty
    os_task.o(i.OSTaskDel) refers to cpu_a.o(.text) for CPU_SR_Save
    os_task.o(i.OSTaskDel) refers to cpu_core.o(i.CPU_IntDisMeasStart) for CPU_IntDisMeasStart
    os_task.o(i.OSTaskDel) refers to cpu_core.o(i.CPU_IntDisMeasStop) for CPU_IntDisMeasStop
    os_task.o(i.OSTaskDel) refers to os_core.o(i.OS_RdyListRemove) for OS_RdyListRemove
    os_task.o(i.OSTaskDel) refers to os_tick.o(i.OS_TickListRemove) for OS_TickListRemove
    os_task.o(i.OSTaskDel) refers to os_core.o(i.OS_PendListRemove) for OS_PendListRemove
    os_task.o(i.OSTaskDel) refers to os_mutex.o(i.OS_MutexGrpPrioFindHighest) for OS_MutexGrpPrioFindHighest
    os_task.o(i.OSTaskDel) refers to os_task.o(i.OS_TaskChangePrio) for OS_TaskChangePrio
    os_task.o(i.OSTaskDel) refers to os_mutex.o(i.OS_MutexGrpPostAll) for OS_MutexGrpPostAll
    os_task.o(i.OSTaskDel) refers to os_msg.o(i.OS_MsgQFreeAll) for OS_MsgQFreeAll
    os_task.o(i.OSTaskDel) refers to os_cpu_c.o(i.OSTaskDelHook) for OSTaskDelHook
    os_task.o(i.OSTaskDel) refers to os_task.o(i.OS_TaskDbgListRemove) for OS_TaskDbgListRemove
    os_task.o(i.OSTaskDel) refers to os_task.o(i.OS_TaskInitTCB) for OS_TaskInitTCB
    os_task.o(i.OSTaskDel) refers to os_core.o(i.OSSched) for OSSched
    os_task.o(i.OSTaskDel) refers to os_var.o(.bss) for OSIdleTaskTCB
    os_task.o(i.OSTaskDel) refers to os_var.o(.data) for OSTCBCurPtr
    os_task.o(i.OSTaskQFlush) refers to cpu_a.o(.text) for CPU_SR_Save
    os_task.o(i.OSTaskQFlush) refers to cpu_core.o(i.CPU_IntDisMeasStart) for CPU_IntDisMeasStart
    os_task.o(i.OSTaskQFlush) refers to cpu_core.o(i.CPU_IntDisMeasStop) for CPU_IntDisMeasStop
    os_task.o(i.OSTaskQFlush) refers to os_msg.o(i.OS_MsgQFreeAll) for OS_MsgQFreeAll
    os_task.o(i.OSTaskQFlush) refers to os_var.o(.data) for OSTCBCurPtr
    os_task.o(i.OSTaskQPend) refers to cpu_a.o(.text) for CPU_SR_Save
    os_task.o(i.OSTaskQPend) refers to cpu_core.o(i.CPU_IntDisMeasStart) for CPU_IntDisMeasStart
    os_task.o(i.OSTaskQPend) refers to os_msg.o(i.OS_MsgQGet) for OS_MsgQGet
    os_task.o(i.OSTaskQPend) refers to bsp.o(i.CPU_TS_TmrRd) for CPU_TS_TmrRd
    os_task.o(i.OSTaskQPend) refers to cpu_core.o(i.CPU_IntDisMeasStop) for CPU_IntDisMeasStop
    os_task.o(i.OSTaskQPend) refers to os_core.o(i.OS_Pend) for OS_Pend
    os_task.o(i.OSTaskQPend) refers to os_core.o(i.OSSched) for OSSched
    os_task.o(i.OSTaskQPend) refers to os_var.o(.data) for OSTCBCurPtr
    os_task.o(i.OSTaskQPendAbort) refers to cpu_a.o(.text) for CPU_SR_Save
    os_task.o(i.OSTaskQPendAbort) refers to cpu_core.o(i.CPU_IntDisMeasStart) for CPU_IntDisMeasStart
    os_task.o(i.OSTaskQPendAbort) refers to cpu_core.o(i.CPU_IntDisMeasStop) for CPU_IntDisMeasStop
    os_task.o(i.OSTaskQPendAbort) refers to bsp.o(i.CPU_TS_TmrRd) for CPU_TS_TmrRd
    os_task.o(i.OSTaskQPendAbort) refers to os_core.o(i.OS_PendAbort) for OS_PendAbort
    os_task.o(i.OSTaskQPendAbort) refers to os_core.o(i.OSSched) for OSSched
    os_task.o(i.OSTaskQPost) refers to bsp.o(i.CPU_TS_TmrRd) for CPU_TS_TmrRd
    os_task.o(i.OSTaskQPost) refers to os_task.o(i.OS_TaskQPost) for OS_TaskQPost
    os_task.o(i.OSTaskRegGet) refers to cpu_a.o(.text) for CPU_SR_Save
    os_task.o(i.OSTaskRegGet) refers to cpu_core.o(i.CPU_IntDisMeasStart) for CPU_IntDisMeasStart
    os_task.o(i.OSTaskRegGet) refers to cpu_core.o(i.CPU_IntDisMeasStop) for CPU_IntDisMeasStop
    os_task.o(i.OSTaskRegGet) refers to os_var.o(.data) for OSTCBCurPtr
    os_task.o(i.OSTaskRegGetID) refers to cpu_a.o(.text) for CPU_SR_Save
    os_task.o(i.OSTaskRegGetID) refers to cpu_core.o(i.CPU_IntDisMeasStart) for CPU_IntDisMeasStart
    os_task.o(i.OSTaskRegGetID) refers to cpu_core.o(i.CPU_IntDisMeasStop) for CPU_IntDisMeasStop
    os_task.o(i.OSTaskRegGetID) refers to os_var.o(.data) for OSTaskRegNextAvailID
    os_task.o(i.OSTaskRegSet) refers to cpu_a.o(.text) for CPU_SR_Save
    os_task.o(i.OSTaskRegSet) refers to cpu_core.o(i.CPU_IntDisMeasStart) for CPU_IntDisMeasStart
    os_task.o(i.OSTaskRegSet) refers to cpu_core.o(i.CPU_IntDisMeasStop) for CPU_IntDisMeasStop
    os_task.o(i.OSTaskRegSet) refers to os_var.o(.data) for OSTCBCurPtr
    os_task.o(i.OSTaskResume) refers to cpu_a.o(.text) for CPU_SR_Save
    os_task.o(i.OSTaskResume) refers to cpu_core.o(i.CPU_IntDisMeasStart) for CPU_IntDisMeasStart
    os_task.o(i.OSTaskResume) refers to cpu_core.o(i.CPU_IntDisMeasStop) for CPU_IntDisMeasStop
    os_task.o(i.OSTaskResume) refers to os_task.o(i.OS_TaskResume) for OS_TaskResume
    os_task.o(i.OSTaskSemPend) refers to cpu_a.o(.text) for CPU_SR_Save
    os_task.o(i.OSTaskSemPend) refers to cpu_core.o(i.CPU_IntDisMeasStart) for CPU_IntDisMeasStart
    os_task.o(i.OSTaskSemPend) refers to bsp.o(i.CPU_TS_TmrRd) for CPU_TS_TmrRd
    os_task.o(i.OSTaskSemPend) refers to cpu_core.o(i.CPU_IntDisMeasStop) for CPU_IntDisMeasStop
    os_task.o(i.OSTaskSemPend) refers to os_core.o(i.OS_Pend) for OS_Pend
    os_task.o(i.OSTaskSemPend) refers to os_core.o(i.OSSched) for OSSched
    os_task.o(i.OSTaskSemPend) refers to os_var.o(.data) for OSTCBCurPtr
    os_task.o(i.OSTaskSemPendAbort) refers to cpu_a.o(.text) for CPU_SR_Save
    os_task.o(i.OSTaskSemPendAbort) refers to cpu_core.o(i.CPU_IntDisMeasStart) for CPU_IntDisMeasStart
    os_task.o(i.OSTaskSemPendAbort) refers to cpu_core.o(i.CPU_IntDisMeasStop) for CPU_IntDisMeasStop
    os_task.o(i.OSTaskSemPendAbort) refers to bsp.o(i.CPU_TS_TmrRd) for CPU_TS_TmrRd
    os_task.o(i.OSTaskSemPendAbort) refers to os_core.o(i.OS_PendAbort) for OS_PendAbort
    os_task.o(i.OSTaskSemPendAbort) refers to os_core.o(i.OSSched) for OSSched
    os_task.o(i.OSTaskSemPendAbort) refers to os_var.o(.data) for OSTCBCurPtr
    os_task.o(i.OSTaskSemPost) refers to bsp.o(i.CPU_TS_TmrRd) for CPU_TS_TmrRd
    os_task.o(i.OSTaskSemPost) refers to os_task.o(i.OS_TaskSemPost) for OS_TaskSemPost
    os_task.o(i.OSTaskSemSet) refers to cpu_a.o(.text) for CPU_SR_Save
    os_task.o(i.OSTaskSemSet) refers to cpu_core.o(i.CPU_IntDisMeasStart) for CPU_IntDisMeasStart
    os_task.o(i.OSTaskSemSet) refers to cpu_core.o(i.CPU_IntDisMeasStop) for CPU_IntDisMeasStop
    os_task.o(i.OSTaskSemSet) refers to os_var.o(.data) for OSTCBCurPtr
    os_task.o(i.OSTaskStkChk) refers to cpu_a.o(.text) for CPU_SR_Save
    os_task.o(i.OSTaskStkChk) refers to cpu_core.o(i.CPU_IntDisMeasStart) for CPU_IntDisMeasStart
    os_task.o(i.OSTaskStkChk) refers to cpu_core.o(i.CPU_IntDisMeasStop) for CPU_IntDisMeasStop
    os_task.o(i.OSTaskStkChk) refers to os_var.o(.data) for OSTCBCurPtr
    os_task.o(i.OSTaskSuspend) refers to os_task.o(i.OS_TaskSuspend) for OS_TaskSuspend
    os_task.o(i.OSTaskSuspend) refers to os_var.o(.bss) for OSIdleTaskTCB
    os_task.o(i.OS_TaskChangePrio) refers to os_core.o(i.OS_RdyListRemove) for OS_RdyListRemove
    os_task.o(i.OS_TaskChangePrio) refers to os_prio.o(i.OS_PrioInsert) for OS_PrioInsert
    os_task.o(i.OS_TaskChangePrio) refers to os_core.o(i.OS_RdyListInsertHead) for OS_RdyListInsertHead
    os_task.o(i.OS_TaskChangePrio) refers to os_core.o(i.OS_RdyListInsertTail) for OS_RdyListInsertTail
    os_task.o(i.OS_TaskChangePrio) refers to os_core.o(i.OS_PendListChangePrio) for OS_PendListChangePrio
    os_task.o(i.OS_TaskChangePrio) refers to os_mutex.o(i.OS_MutexGrpPrioFindHighest) for OS_MutexGrpPrioFindHighest
    os_task.o(i.OS_TaskChangePrio) refers to os_var.o(.data) for OSTCBCurPtr
    os_task.o(i.OS_TaskDbgListAdd) refers to os_var.o(.data) for OSTaskDbgListPtr
    os_task.o(i.OS_TaskDbgListRemove) refers to os_var.o(.data) for OSTaskDbgListPtr
    os_task.o(i.OS_TaskInit) refers to os_var.o(.data) for OSTaskDbgListPtr
    os_task.o(i.OS_TaskInitTCB) refers to os_msg.o(i.OS_MsgQInit) for OS_MsgQInit
    os_task.o(i.OS_TaskInitTCB) refers to bsp.o(i.CPU_TS_TmrRd) for CPU_TS_TmrRd
    os_task.o(i.OS_TaskQPost) refers to cpu_a.o(.text) for CPU_SR_Save
    os_task.o(i.OS_TaskQPost) refers to cpu_core.o(i.CPU_IntDisMeasStart) for CPU_IntDisMeasStart
    os_task.o(i.OS_TaskQPost) refers to os_msg.o(i.OS_MsgQPut) for OS_MsgQPut
    os_task.o(i.OS_TaskQPost) refers to cpu_core.o(i.CPU_IntDisMeasStop) for CPU_IntDisMeasStop
    os_task.o(i.OS_TaskQPost) refers to os_core.o(i.OS_Post) for OS_Post
    os_task.o(i.OS_TaskQPost) refers to os_core.o(i.OSSched) for OSSched
    os_task.o(i.OS_TaskQPost) refers to os_var.o(.data) for OSTCBCurPtr
    os_task.o(i.OS_TaskResume) refers to cpu_a.o(.text) for CPU_SR_Save
    os_task.o(i.OS_TaskResume) refers to cpu_core.o(i.CPU_IntDisMeasStart) for CPU_IntDisMeasStart
    os_task.o(i.OS_TaskResume) refers to cpu_core.o(i.CPU_IntDisMeasStop) for CPU_IntDisMeasStop
    os_task.o(i.OS_TaskResume) refers to os_core.o(i.OS_RdyListInsert) for OS_RdyListInsert
    os_task.o(i.OS_TaskResume) refers to os_core.o(i.OSSched) for OSSched
    os_task.o(i.OS_TaskReturn) refers to os_cpu_c.o(i.OSTaskReturnHook) for OSTaskReturnHook
    os_task.o(i.OS_TaskReturn) refers to os_task.o(i.OSTaskDel) for OSTaskDel
    os_task.o(i.OS_TaskReturn) refers to os_var.o(.data) for OSTCBCurPtr
    os_task.o(i.OS_TaskSemPost) refers to cpu_a.o(.text) for CPU_SR_Save
    os_task.o(i.OS_TaskSemPost) refers to cpu_core.o(i.CPU_IntDisMeasStart) for CPU_IntDisMeasStart
    os_task.o(i.OS_TaskSemPost) refers to cpu_core.o(i.CPU_IntDisMeasStop) for CPU_IntDisMeasStop
    os_task.o(i.OS_TaskSemPost) refers to os_core.o(i.OS_Post) for OS_Post
    os_task.o(i.OS_TaskSemPost) refers to os_core.o(i.OSSched) for OSSched
    os_task.o(i.OS_TaskSemPost) refers to os_var.o(.data) for OSTCBCurPtr
    os_task.o(i.OS_TaskSuspend) refers to cpu_a.o(.text) for CPU_SR_Save
    os_task.o(i.OS_TaskSuspend) refers to cpu_core.o(i.CPU_IntDisMeasStart) for CPU_IntDisMeasStart
    os_task.o(i.OS_TaskSuspend) refers to cpu_core.o(i.CPU_IntDisMeasStop) for CPU_IntDisMeasStop
    os_task.o(i.OS_TaskSuspend) refers to os_core.o(i.OS_RdyListRemove) for OS_RdyListRemove
    os_task.o(i.OS_TaskSuspend) refers to os_core.o(i.OSSched) for OSSched
    os_task.o(i.OS_TaskSuspend) refers to os_var.o(.data) for OSTCBCurPtr
    os_tick.o(i.OS_TickListInsertDly) refers to os_tick.o(i.OS_TickListInsert) for OS_TickListInsert
    os_tick.o(i.OS_TickListInsertDly) refers to os_var.o(.data) for OSTickCtr
    os_tick.o(i.OS_TickListUpdateDly) refers to cpu_a.o(.text) for CPU_SR_Save
    os_tick.o(i.OS_TickListUpdateDly) refers to cpu_core.o(i.CPU_IntDisMeasStart) for CPU_IntDisMeasStart
    os_tick.o(i.OS_TickListUpdateDly) refers to bsp.o(i.CPU_TS_TmrRd) for CPU_TS_TmrRd
    os_tick.o(i.OS_TickListUpdateDly) refers to os_core.o(i.OS_RdyListInsert) for OS_RdyListInsert
    os_tick.o(i.OS_TickListUpdateDly) refers to cpu_core.o(i.CPU_IntDisMeasStop) for CPU_IntDisMeasStop
    os_tick.o(i.OS_TickListUpdateDly) refers to os_var.o(.data) for OSTickListDly
    os_tick.o(i.OS_TickListUpdateTimeout) refers to cpu_a.o(.text) for CPU_SR_Save
    os_tick.o(i.OS_TickListUpdateTimeout) refers to cpu_core.o(i.CPU_IntDisMeasStart) for CPU_IntDisMeasStart
    os_tick.o(i.OS_TickListUpdateTimeout) refers to bsp.o(i.CPU_TS_TmrRd) for CPU_TS_TmrRd
    os_tick.o(i.OS_TickListUpdateTimeout) refers to os_core.o(i.OS_PendListRemove) for OS_PendListRemove
    os_tick.o(i.OS_TickListUpdateTimeout) refers to os_core.o(i.OS_RdyListInsert) for OS_RdyListInsert
    os_tick.o(i.OS_TickListUpdateTimeout) refers to os_mutex.o(i.OS_MutexGrpPrioFindHighest) for OS_MutexGrpPrioFindHighest
    os_tick.o(i.OS_TickListUpdateTimeout) refers to os_task.o(i.OS_TaskChangePrio) for OS_TaskChangePrio
    os_tick.o(i.OS_TickListUpdateTimeout) refers to cpu_core.o(i.CPU_IntDisMeasStop) for CPU_IntDisMeasStop
    os_tick.o(i.OS_TickListUpdateTimeout) refers to os_var.o(.data) for OSTickListTimeout
    os_tick.o(i.OS_TickTask) refers to os_task.o(i.OSTaskSemPend) for OSTaskSemPend
    os_tick.o(i.OS_TickTask) refers to cpu_a.o(.text) for CPU_SR_Save
    os_tick.o(i.OS_TickTask) refers to cpu_core.o(i.CPU_IntDisMeasStart) for CPU_IntDisMeasStart
    os_tick.o(i.OS_TickTask) refers to cpu_core.o(i.CPU_IntDisMeasStop) for CPU_IntDisMeasStop
    os_tick.o(i.OS_TickTask) refers to os_tick.o(i.OS_TickListUpdateDly) for OS_TickListUpdateDly
    os_tick.o(i.OS_TickTask) refers to os_tick.o(i.OS_TickListUpdateTimeout) for OS_TickListUpdateTimeout
    os_tick.o(i.OS_TickTask) refers to os_var.o(.data) for OSTickCtr
    os_tick.o(i.OS_TickTaskInit) refers to os_task.o(i.OSTaskCreate) for OSTaskCreate
    os_tick.o(i.OS_TickTaskInit) refers to os_var.o(.data) for OSTickCtr
    os_tick.o(i.OS_TickTaskInit) refers to os_cfg_app.o(.constdata) for OSCfg_TickTaskStkBasePtr
    os_tick.o(i.OS_TickTaskInit) refers to os_tick.o(i.OS_TickTask) for OS_TickTask
    os_tick.o(i.OS_TickTaskInit) refers to os_var.o(.bss) for OSTickTaskTCB
    os_time.o(i.OSTimeDly) refers to cpu_a.o(.text) for CPU_SR_Save
    os_time.o(i.OSTimeDly) refers to cpu_core.o(i.CPU_IntDisMeasStart) for CPU_IntDisMeasStart
    os_time.o(i.OSTimeDly) refers to os_tick.o(i.OS_TickListInsertDly) for OS_TickListInsertDly
    os_time.o(i.OSTimeDly) refers to cpu_core.o(i.CPU_IntDisMeasStop) for CPU_IntDisMeasStop
    os_time.o(i.OSTimeDly) refers to os_core.o(i.OS_RdyListRemove) for OS_RdyListRemove
    os_time.o(i.OSTimeDly) refers to os_core.o(i.OSSched) for OSSched
    os_time.o(i.OSTimeDly) refers to os_var.o(.data) for OSSchedLockNestingCtr
    os_time.o(i.OSTimeDlyHMSM) refers to cpu_a.o(.text) for CPU_SR_Save
    os_time.o(i.OSTimeDlyHMSM) refers to cpu_core.o(i.CPU_IntDisMeasStart) for CPU_IntDisMeasStart
    os_time.o(i.OSTimeDlyHMSM) refers to os_tick.o(i.OS_TickListInsertDly) for OS_TickListInsertDly
    os_time.o(i.OSTimeDlyHMSM) refers to cpu_core.o(i.CPU_IntDisMeasStop) for CPU_IntDisMeasStop
    os_time.o(i.OSTimeDlyHMSM) refers to os_core.o(i.OS_RdyListRemove) for OS_RdyListRemove
    os_time.o(i.OSTimeDlyHMSM) refers to os_core.o(i.OSSched) for OSSched
    os_time.o(i.OSTimeDlyHMSM) refers to os_var.o(.data) for OSSchedLockNestingCtr
    os_time.o(i.OSTimeDlyHMSM) refers to os_cfg_app.o(.constdata) for OSCfg_TickRate_Hz
    os_time.o(i.OSTimeGet) refers to cpu_a.o(.text) for CPU_SR_Save
    os_time.o(i.OSTimeGet) refers to cpu_core.o(i.CPU_IntDisMeasStart) for CPU_IntDisMeasStart
    os_time.o(i.OSTimeGet) refers to cpu_core.o(i.CPU_IntDisMeasStop) for CPU_IntDisMeasStop
    os_time.o(i.OSTimeGet) refers to os_var.o(.data) for OSTickCtr
    os_time.o(i.OSTimeSet) refers to cpu_a.o(.text) for CPU_SR_Save
    os_time.o(i.OSTimeSet) refers to cpu_core.o(i.CPU_IntDisMeasStart) for CPU_IntDisMeasStart
    os_time.o(i.OSTimeSet) refers to cpu_core.o(i.CPU_IntDisMeasStop) for CPU_IntDisMeasStop
    os_time.o(i.OSTimeSet) refers to os_var.o(.data) for OSTickCtr
    os_time.o(i.OSTimeTick) refers to os_cpu_c.o(i.OSTimeTickHook) for OSTimeTickHook
    os_time.o(i.OSTimeTick) refers to os_task.o(i.OSTaskSemPost) for OSTaskSemPost
    os_time.o(i.OSTimeTick) refers to os_var.o(.bss) for OSTickTaskTCB
    os_time.o(i.OSTimeTick) refers to os_var.o(.data) for OSTmrUpdateCtr
    os_tmr.o(i.OSTmrCreate) refers to os_tmr.o(i.OS_TmrLock) for OS_TmrLock
    os_tmr.o(i.OSTmrCreate) refers to os_tmr.o(i.OS_TmrDbgListAdd) for OS_TmrDbgListAdd
    os_tmr.o(i.OSTmrCreate) refers to os_tmr.o(i.OS_TmrUnlock) for OS_TmrUnlock
    os_tmr.o(i.OSTmrCreate) refers to os_var.o(.data) for OSRunning
    os_tmr.o(i.OSTmrRemainGet) refers to os_tmr.o(i.OS_TmrLock) for OS_TmrLock
    os_tmr.o(i.OSTmrRemainGet) refers to os_tmr.o(i.OS_TmrUnlock) for OS_TmrUnlock
    os_tmr.o(i.OSTmrSet) refers to os_tmr.o(i.OS_TmrLock) for OS_TmrLock
    os_tmr.o(i.OSTmrSet) refers to os_tmr.o(i.OS_TmrUnlock) for OS_TmrUnlock
    os_tmr.o(i.OSTmrStart) refers to os_tmr.o(i.OS_TmrLock) for OS_TmrLock
    os_tmr.o(i.OSTmrStart) refers to os_tmr.o(i.OS_TmrUnlock) for OS_TmrUnlock
    os_tmr.o(i.OSTmrStart) refers to os_var.o(.data) for OSTmrListPtr
    os_tmr.o(i.OSTmrStateGet) refers to os_tmr.o(i.OS_TmrLock) for OS_TmrLock
    os_tmr.o(i.OSTmrStateGet) refers to os_tmr.o(i.OS_TmrUnlock) for OS_TmrUnlock
    os_tmr.o(i.OSTmrStop) refers to os_tmr.o(i.OS_TmrLock) for OS_TmrLock
    os_tmr.o(i.OSTmrStop) refers to os_tmr.o(i.OS_TmrUnlink) for OS_TmrUnlink
    os_tmr.o(i.OSTmrStop) refers to os_tmr.o(i.OS_TmrUnlock) for OS_TmrUnlock
    os_tmr.o(i.OS_TmrDbgListAdd) refers to os_var.o(.data) for OSTmrDbgListPtr
    os_tmr.o(i.OS_TmrDbgListRemove) refers to os_var.o(.data) for OSTmrDbgListPtr
    os_tmr.o(i.OS_TmrInit) refers to os_mutex.o(i.OSMutexCreate) for OSMutexCreate
    os_tmr.o(i.OS_TmrInit) refers to os_task.o(i.OSTaskCreate) for OSTaskCreate
    os_tmr.o(i.OS_TmrInit) refers to os_var.o(.data) for OSTmrDbgListPtr
    os_tmr.o(i.OS_TmrInit) refers to os_cfg_app.o(.constdata) for OSCfg_TmrTaskRate_Hz
    os_tmr.o(i.OS_TmrInit) refers to os_var.o(.bss) for OSTmrMutex
    os_tmr.o(i.OS_TmrInit) refers to os_tmr.o(i.OS_TmrTask) for OS_TmrTask
    os_tmr.o(i.OS_TmrLock) refers to os_mutex.o(i.OSMutexPend) for OSMutexPend
    os_tmr.o(i.OS_TmrLock) refers to os_var.o(.bss) for OSTmrMutex
    os_tmr.o(i.OS_TmrTask) refers to os_task.o(i.OSTaskSemPend) for OSTaskSemPend
    os_tmr.o(i.OS_TmrTask) refers to os_tmr.o(i.OS_TmrLock) for OS_TmrLock
    os_tmr.o(i.OS_TmrTask) refers to bsp.o(i.CPU_TS_TmrRd) for CPU_TS_TmrRd
    os_tmr.o(i.OS_TmrTask) refers to os_core.o(i.OSSchedLock) for OSSchedLock
    os_tmr.o(i.OS_TmrTask) refers to os_tmr.o(i.OS_TmrUnlink) for OS_TmrUnlink
    os_tmr.o(i.OS_TmrTask) refers to os_core.o(i.OSSchedUnlock) for OSSchedUnlock
    os_tmr.o(i.OS_TmrTask) refers to os_tmr.o(i.OS_TmrUnlock) for OS_TmrUnlock
    os_tmr.o(i.OS_TmrTask) refers to os_var.o(.data) for OSTmrTickCtr
    os_tmr.o(i.OS_TmrUnlink) refers to os_var.o(.data) for OSTmrListPtr
    os_tmr.o(i.OS_TmrUnlock) refers to os_mutex.o(i.OSMutexPost) for OSMutexPost
    os_tmr.o(i.OS_TmrUnlock) refers to os_var.o(.bss) for OSTmrMutex
    os_cpu_c.o(i.OSIdleTaskHook) refers to os_var.o(.data) for OS_AppIdleTaskHookPtr
    os_cpu_c.o(i.OSInitHook) refers to os_cfg_app.o(.constdata) for OSCfg_ISRStkBasePtr
    os_cpu_c.o(i.OSInitHook) refers to os_cpu_c.o(.data) for OS_CPU_ExceptStkBase
    os_cpu_c.o(i.OSStatTaskHook) refers to os_var.o(.data) for OS_AppStatTaskHookPtr
    os_cpu_c.o(i.OSTaskCreateHook) refers to os_var.o(.data) for OS_AppTaskCreateHookPtr
    os_cpu_c.o(i.OSTaskDelHook) refers to os_var.o(.data) for OS_AppTaskDelHookPtr
    os_cpu_c.o(i.OSTaskReturnHook) refers to os_var.o(.data) for OS_AppTaskReturnHookPtr
    os_cpu_c.o(i.OSTaskStkInit) refers to os_task.o(i.OS_TaskReturn) for OS_TaskReturn
    os_cpu_c.o(i.OSTaskSwHook) refers to os_cpu_a.o(CODE) for OS_CPU_FP_Reg_Push
    os_cpu_c.o(i.OSTaskSwHook) refers to bsp.o(i.CPU_TS_TmrRd) for CPU_TS_TmrRd
    os_cpu_c.o(i.OSTaskSwHook) refers to cpu_core.o(i.CPU_IntDisMeasMaxCurReset) for CPU_IntDisMeasMaxCurReset
    os_cpu_c.o(i.OSTaskSwHook) refers to os_var.o(.data) for OSTCBCurPtr
    os_cpu_c.o(i.OSTimeTickHook) refers to os_var.o(.data) for OS_AppTimeTickHookPtr
    os_cpu_c.o(i.OS_CPU_SysTickHandler) refers to cpu_a.o(.text) for CPU_SR_Save
    os_cpu_c.o(i.OS_CPU_SysTickHandler) refers to cpu_core.o(i.CPU_IntDisMeasStart) for CPU_IntDisMeasStart
    os_cpu_c.o(i.OS_CPU_SysTickHandler) refers to cpu_core.o(i.CPU_IntDisMeasStop) for CPU_IntDisMeasStop
    os_cpu_c.o(i.OS_CPU_SysTickHandler) refers to os_time.o(i.OSTimeTick) for OSTimeTick
    os_cpu_c.o(i.OS_CPU_SysTickHandler) refers to os_core.o(i.OSIntExit) for OSIntExit
    os_cpu_c.o(i.OS_CPU_SysTickHandler) refers to os_var.o(.data) for OSIntNestingCtr
    os_cpu_a.o(CODE) refers to os_cpu_c.o(.data) for OS_CPU_ExceptStkBase
    os_cpu_a.o(CODE) refers to os_var.o(.data) for OSPrioCur
    os_cpu_a.o(CODE) refers to os_cpu_c.o(i.OSTaskSwHook) for OSTaskSwHook
    os_app_hooks.o(i.App_OS_ClrAllHooks) refers to cpu_a.o(.text) for CPU_SR_Save
    os_app_hooks.o(i.App_OS_ClrAllHooks) refers to cpu_core.o(i.CPU_IntDisMeasStart) for CPU_IntDisMeasStart
    os_app_hooks.o(i.App_OS_ClrAllHooks) refers to cpu_core.o(i.CPU_IntDisMeasStop) for CPU_IntDisMeasStop
    os_app_hooks.o(i.App_OS_ClrAllHooks) refers to os_var.o(.data) for OS_AppTaskCreateHookPtr
    os_app_hooks.o(i.App_OS_SetAllHooks) refers to cpu_a.o(.text) for CPU_SR_Save
    os_app_hooks.o(i.App_OS_SetAllHooks) refers to cpu_core.o(i.CPU_IntDisMeasStart) for CPU_IntDisMeasStart
    os_app_hooks.o(i.App_OS_SetAllHooks) refers to cpu_core.o(i.CPU_IntDisMeasStop) for CPU_IntDisMeasStop
    os_app_hooks.o(i.App_OS_SetAllHooks) refers to os_app_hooks.o(i.App_OS_TaskCreateHook) for App_OS_TaskCreateHook
    os_app_hooks.o(i.App_OS_SetAllHooks) refers to os_var.o(.data) for OS_AppTaskCreateHookPtr
    os_app_hooks.o(i.App_OS_SetAllHooks) refers to os_app_hooks.o(i.App_OS_TaskDelHook) for App_OS_TaskDelHook
    os_app_hooks.o(i.App_OS_SetAllHooks) refers to os_app_hooks.o(i.App_OS_TaskReturnHook) for App_OS_TaskReturnHook
    os_app_hooks.o(i.App_OS_SetAllHooks) refers to os_app_hooks.o(i.App_OS_IdleTaskHook) for App_OS_IdleTaskHook
    os_app_hooks.o(i.App_OS_SetAllHooks) refers to os_app_hooks.o(i.App_OS_StatTaskHook) for App_OS_StatTaskHook
    os_app_hooks.o(i.App_OS_SetAllHooks) refers to os_app_hooks.o(i.App_OS_TaskSwHook) for App_OS_TaskSwHook
    os_app_hooks.o(i.App_OS_SetAllHooks) refers to os_app_hooks.o(i.App_OS_TimeTickHook) for App_OS_TimeTickHook
    use_no_semi_2.o(.text) refers (Special) to use_no_semi.o(.text) for __use_no_semihosting_swi
    atoi.o(.text) refers to rt_errno_addr_intlibspace.o(.text) for __aeabi_errno_addr
    atoi.o(.text) refers to strtol.o(.text) for strtol
    __main.o(!!!main) refers to __rtentry.o(.ARM.Collect$$rtentry$$00000000) for __rt_entry
    __rtentry.o(.ARM.Collect$$rtentry$$00000000) refers (Special) to __rtentry2.o(.ARM.Collect$$rtentry$$0000000A) for __rt_entry_li
    __rtentry.o(.ARM.Collect$$rtentry$$00000000) refers (Special) to __rtentry2.o(.ARM.Collect$$rtentry$$0000000D) for __rt_entry_main
    __rtentry.o(.ARM.Collect$$rtentry$$00000000) refers (Special) to __rtentry2.o(.ARM.Collect$$rtentry$$0000000C) for __rt_entry_postli_1
    __rtentry.o(.ARM.Collect$$rtentry$$00000000) refers (Special) to __rtentry2.o(.ARM.Collect$$rtentry$$00000009) for __rt_entry_postsh_1
    __rtentry.o(.ARM.Collect$$rtentry$$00000000) refers (Special) to __rtentry2.o(.ARM.Collect$$rtentry$$00000002) for __rt_entry_presh_1
    __rtentry.o(.ARM.Collect$$rtentry$$00000000) refers (Special) to __rtentry4.o(.ARM.Collect$$rtentry$$00000004) for __rt_entry_sh
    aeabi_ldiv0_sigfpe.o(.text) refers to rt_div0.o(.text) for __rt_div0
    rt_errno_addr.o(.text) refers to rt_errno_addr.o(.bss) for __aeabi_errno_addr_data
    rt_errno_addr_intlibspace.o(.text) refers to libspace.o(.bss) for __libspace_start
    strtol.o(.text) refers to rt_ctype_table.o(.text) for __rt_ctype_table
    strtol.o(.text) refers to _strtoul.o(.text) for _strtoul
    strtol.o(.text) refers to rt_errno_addr_intlibspace.o(.text) for __aeabi_errno_addr
    libspace.o(.text) refers to libspace.o(.bss) for __libspace_start
    __rtentry2.o(.ARM.Collect$$rtentry$$00000008) refers to boardinit2.o(.text) for _platform_post_stackheap_init
    __rtentry2.o(.ARM.Collect$$rtentry$$0000000A) refers to libinit.o(.ARM.Collect$$libinit$$00000000) for __rt_lib_init
    __rtentry2.o(.ARM.Collect$$rtentry$$0000000B) refers to boardinit3.o(.text) for _platform_post_lib_init
    __rtentry2.o(.ARM.Collect$$rtentry$$0000000D) refers to main.o(i.main) for main
    __rtentry2.o(.ARM.Collect$$rtentry$$0000000D) refers to exit.o(.text) for exit
    __rtentry2.o(.ARM.exidx) refers to __rtentry2.o(.ARM.Collect$$rtentry$$00000001) for .ARM.Collect$$rtentry$$00000001
    __rtentry2.o(.ARM.exidx) refers to __rtentry2.o(.ARM.Collect$$rtentry$$00000008) for .ARM.Collect$$rtentry$$00000008
    __rtentry2.o(.ARM.exidx) refers to __rtentry2.o(.ARM.Collect$$rtentry$$0000000A) for .ARM.Collect$$rtentry$$0000000A
    __rtentry2.o(.ARM.exidx) refers to __rtentry2.o(.ARM.Collect$$rtentry$$0000000B) for .ARM.Collect$$rtentry$$0000000B
    __rtentry2.o(.ARM.exidx) refers to __rtentry2.o(.ARM.Collect$$rtentry$$0000000D) for .ARM.Collect$$rtentry$$0000000D
    __rtentry4.o(.ARM.Collect$$rtentry$$00000004) refers to sys_stackheap_outer.o(.text) for __user_setup_stackheap
    __rtentry4.o(.ARM.exidx) refers to __rtentry4.o(.ARM.Collect$$rtentry$$00000004) for .ARM.Collect$$rtentry$$00000004
    rt_ctype_table.o(.text) refers to rt_locale_intlibspace.o(.text) for __rt_locale
    rt_ctype_table.o(.text) refers to lc_ctype_c.o(locale$$code) for _get_lc_ctype
    rt_div0.o(.text) refers to defsig_fpe_outer.o(.text) for __rt_SIGFPE
    _strtoul.o(.text) refers to _chval.o(.text) for _chval
    _strtoul.o(.text) refers to rt_errno_addr_intlibspace.o(.text) for __aeabi_errno_addr
    sys_stackheap_outer.o(.text) refers to libspace.o(.text) for __user_perproc_libspace
    sys_stackheap_outer.o(.text) refers to startup_stm32f767xx.o(.text) for __user_initial_stackheap
    rt_locale.o(.text) refers to rt_locale.o(.bss) for __rt_locale_data
    rt_locale_intlibspace.o(.text) refers to libspace.o(.bss) for __libspace_start
    lc_ctype_c.o(locale$$data) refers (Special) to libinit2.o(.ARM.Collect$$libinit$$00000012) for __rt_lib_init_lc_ctype_2
    lc_ctype_c.o(locale$$code) refers (Special) to libinit2.o(.ARM.Collect$$libinit$$00000012) for __rt_lib_init_lc_ctype_2
    lc_ctype_c.o(locale$$code) refers to strcmpv7m_pel.o(.text) for strcmp
    lc_ctype_c.o(locale$$code) refers to lc_ctype_c.o(locale$$data) for __lcctype_c_name
    exit.o(.text) refers to rtexit.o(.ARM.Collect$$rtexit$$00000000) for __rt_exit
    defsig_fpe_outer.o(.text) refers to defsig_fpe_inner.o(.text) for __rt_SIGFPE_inner
    defsig_fpe_outer.o(.text) refers to defsig_exit.o(.text) for __sig_exit
    defsig_fpe_formal.o(.text) refers to rt_raise.o(.text) for __rt_raise
    libinit.o(.ARM.Collect$$libinit$$00000000) refers (Special) to libinit2.o(.ARM.Collect$$libinit$$0000002E) for __rt_lib_init_alloca_1
    libinit.o(.ARM.Collect$$libinit$$00000000) refers (Special) to libinit2.o(.ARM.Collect$$libinit$$0000002C) for __rt_lib_init_argv_1
    libinit.o(.ARM.Collect$$libinit$$00000000) refers (Special) to libinit2.o(.ARM.Collect$$libinit$$0000001B) for __rt_lib_init_atexit_1
    libinit.o(.ARM.Collect$$libinit$$00000000) refers (Special) to libinit2.o(.ARM.Collect$$libinit$$00000021) for __rt_lib_init_clock_1
    libinit.o(.ARM.Collect$$libinit$$00000000) refers (Special) to libinit2.o(.ARM.Collect$$libinit$$00000032) for __rt_lib_init_cpp_1
    libinit.o(.ARM.Collect$$libinit$$00000000) refers (Special) to libinit2.o(.ARM.Collect$$libinit$$00000030) for __rt_lib_init_exceptions_1
    libinit.o(.ARM.Collect$$libinit$$00000000) refers (Special) to libinit2.o(.ARM.Collect$$libinit$$00000001) for __rt_lib_init_fp_1
    libinit.o(.ARM.Collect$$libinit$$00000000) refers (Special) to libinit2.o(.ARM.Collect$$libinit$$0000001F) for __rt_lib_init_fp_trap_1
    libinit.o(.ARM.Collect$$libinit$$00000000) refers (Special) to libinit2.o(.ARM.Collect$$libinit$$00000023) for __rt_lib_init_getenv_1
    libinit.o(.ARM.Collect$$libinit$$00000000) refers (Special) to libinit2.o(.ARM.Collect$$libinit$$0000000A) for __rt_lib_init_heap_1
    libinit.o(.ARM.Collect$$libinit$$00000000) refers (Special) to libinit2.o(.ARM.Collect$$libinit$$00000011) for __rt_lib_init_lc_collate_1
    libinit.o(.ARM.Collect$$libinit$$00000000) refers (Special) to libinit2.o(.ARM.Collect$$libinit$$00000013) for __rt_lib_init_lc_ctype_1
    libinit.o(.ARM.Collect$$libinit$$00000000) refers (Special) to libinit2.o(.ARM.Collect$$libinit$$00000015) for __rt_lib_init_lc_monetary_1
    libinit.o(.ARM.Collect$$libinit$$00000000) refers (Special) to libinit2.o(.ARM.Collect$$libinit$$00000017) for __rt_lib_init_lc_numeric_1
    libinit.o(.ARM.Collect$$libinit$$00000000) refers (Special) to libinit2.o(.ARM.Collect$$libinit$$00000019) for __rt_lib_init_lc_time_1
    libinit.o(.ARM.Collect$$libinit$$00000000) refers (Special) to libinit2.o(.ARM.Collect$$libinit$$00000004) for __rt_lib_init_preinit_1
    libinit.o(.ARM.Collect$$libinit$$00000000) refers (Special) to libinit2.o(.ARM.Collect$$libinit$$0000000E) for __rt_lib_init_rand_1
    libinit.o(.ARM.Collect$$libinit$$00000000) refers (Special) to libinit2.o(.ARM.Collect$$libinit$$00000033) for __rt_lib_init_return
    libinit.o(.ARM.Collect$$libinit$$00000000) refers (Special) to libinit2.o(.ARM.Collect$$libinit$$0000001D) for __rt_lib_init_signal_1
    libinit.o(.ARM.Collect$$libinit$$00000000) refers (Special) to libinit2.o(.ARM.Collect$$libinit$$00000025) for __rt_lib_init_stdio_1
    libinit.o(.ARM.Collect$$libinit$$00000000) refers (Special) to libinit2.o(.ARM.Collect$$libinit$$0000000C) for __rt_lib_init_user_alloc_1
    rtexit.o(.ARM.Collect$$rtexit$$00000000) refers (Special) to rtexit2.o(.ARM.Collect$$rtexit$$00000004) for __rt_exit_exit
    rtexit.o(.ARM.Collect$$rtexit$$00000000) refers (Special) to rtexit2.o(.ARM.Collect$$rtexit$$00000003) for __rt_exit_ls
    rtexit.o(.ARM.Collect$$rtexit$$00000000) refers (Special) to rtexit2.o(.ARM.Collect$$rtexit$$00000002) for __rt_exit_prels_1
    rtexit.o(.ARM.exidx) refers (Special) to rtexit2.o(.ARM.Collect$$rtexit$$00000004) for __rt_exit_exit
    rtexit.o(.ARM.exidx) refers (Special) to rtexit2.o(.ARM.Collect$$rtexit$$00000003) for __rt_exit_ls
    rtexit.o(.ARM.exidx) refers (Special) to rtexit2.o(.ARM.Collect$$rtexit$$00000002) for __rt_exit_prels_1
    rtexit.o(.ARM.exidx) refers to rtexit.o(.ARM.Collect$$rtexit$$00000000) for .ARM.Collect$$rtexit$$00000000
    rt_raise.o(.text) refers to __raise.o(.text) for __raise
    rt_raise.o(.text) refers to usart.o(i._sys_exit) for _sys_exit
    defsig_exit.o(.text) refers to usart.o(i._sys_exit) for _sys_exit
    defsig_fpe_inner.o(.text) refers to defsig_general.o(.text) for __default_signal_display
    libinit2.o(.ARM.Collect$$libinit$$00000001) refers to fpinit.o(x$fpl$fpinit) for _fp_init
    libinit2.o(.ARM.Collect$$libinit$$0000000F) refers (Weak) to rt_locale_intlibspace.o(.text) for __rt_locale
    libinit2.o(.ARM.Collect$$libinit$$00000010) refers to libinit2.o(.ARM.Collect$$libinit$$0000000F) for .ARM.Collect$$libinit$$0000000F
    libinit2.o(.ARM.Collect$$libinit$$00000012) refers to libinit2.o(.ARM.Collect$$libinit$$0000000F) for .ARM.Collect$$libinit$$0000000F
    libinit2.o(.ARM.Collect$$libinit$$00000012) refers (Weak) to lc_ctype_c.o(locale$$code) for _get_lc_ctype
    libinit2.o(.ARM.Collect$$libinit$$00000014) refers to libinit2.o(.ARM.Collect$$libinit$$0000000F) for .ARM.Collect$$libinit$$0000000F
    libinit2.o(.ARM.Collect$$libinit$$00000016) refers to libinit2.o(.ARM.Collect$$libinit$$0000000F) for .ARM.Collect$$libinit$$0000000F
    libinit2.o(.ARM.Collect$$libinit$$00000018) refers to libinit2.o(.ARM.Collect$$libinit$$0000000F) for .ARM.Collect$$libinit$$0000000F
    libinit2.o(.ARM.Collect$$libinit$$00000026) refers to argv_veneer.o(.emb_text) for __ARM_argv_veneer
    libinit2.o(.ARM.Collect$$libinit$$00000027) refers to argv_veneer.o(.emb_text) for __ARM_argv_veneer
    rtexit2.o(.ARM.Collect$$rtexit$$00000003) refers to libshutdown.o(.ARM.Collect$$libshutdown$$00000000) for __rt_lib_shutdown
    rtexit2.o(.ARM.Collect$$rtexit$$00000004) refers to usart.o(i._sys_exit) for _sys_exit
    rtexit2.o(.ARM.exidx) refers to rtexit2.o(.ARM.Collect$$rtexit$$00000001) for .ARM.Collect$$rtexit$$00000001
    rtexit2.o(.ARM.exidx) refers to rtexit2.o(.ARM.Collect$$rtexit$$00000003) for .ARM.Collect$$rtexit$$00000003
    rtexit2.o(.ARM.exidx) refers to rtexit2.o(.ARM.Collect$$rtexit$$00000004) for .ARM.Collect$$rtexit$$00000004
    __raise.o(.text) refers to defsig.o(CL$$defsig) for __default_signal_handler
    defsig_general.o(.text) refers to sys_wrch.o(.text) for _ttywrch
    argv_veneer.o(.emb_text) refers to no_argv.o(.text) for __ARM_get_argv
    sys_wrch.o(.text) refers (Special) to use_no_semi.o(.text) for __I$use$semihosting
    sys_wrch.o(.text) refers (Special) to indicate_semi.o(.text) for __semihosting_library_function
    defsig.o(CL$$defsig) refers to defsig_fpe_inner.o(.text) for __rt_SIGFPE_inner
    defsig.o(CL$$defsig) refers to defsig_rtmem_inner.o(.text) for __rt_SIGRTMEM_inner
    _get_argv_nomalloc.o(.text) refers (Special) to hrguard.o(.text) for __heap_region$guard
    _get_argv_nomalloc.o(.text) refers to defsig_rtmem_outer.o(.text) for __rt_SIGRTMEM
    _get_argv_nomalloc.o(.text) refers to sys_command.o(.text) for _sys_command_string
    libshutdown.o(.ARM.Collect$$libshutdown$$00000000) refers (Special) to libshutdown2.o(.ARM.Collect$$libshutdown$$00000002) for __rt_lib_shutdown_cpp_1
    libshutdown.o(.ARM.Collect$$libshutdown$$00000000) refers (Special) to libshutdown2.o(.ARM.Collect$$libshutdown$$00000007) for __rt_lib_shutdown_fp_trap_1
    libshutdown.o(.ARM.Collect$$libshutdown$$00000000) refers (Special) to libshutdown2.o(.ARM.Collect$$libshutdown$$0000000F) for __rt_lib_shutdown_heap_1
    libshutdown.o(.ARM.Collect$$libshutdown$$00000000) refers (Special) to libshutdown2.o(.ARM.Collect$$libshutdown$$00000010) for __rt_lib_shutdown_return
    libshutdown.o(.ARM.Collect$$libshutdown$$00000000) refers (Special) to libshutdown2.o(.ARM.Collect$$libshutdown$$0000000A) for __rt_lib_shutdown_signal_1
    libshutdown.o(.ARM.Collect$$libshutdown$$00000000) refers (Special) to libshutdown2.o(.ARM.Collect$$libshutdown$$00000004) for __rt_lib_shutdown_stdio_1
    libshutdown.o(.ARM.Collect$$libshutdown$$00000000) refers (Special) to libshutdown2.o(.ARM.Collect$$libshutdown$$0000000C) for __rt_lib_shutdown_user_alloc_1
    sys_command.o(.text) refers (Special) to use_no_semi.o(.text) for __I$use$semihosting
    sys_command.o(.text) refers (Special) to indicate_semi.o(.text) for __semihosting_library_function
    defsig_abrt_inner.o(.text) refers to defsig_general.o(.text) for __default_signal_display
    defsig_rtred_inner.o(.text) refers to defsig_general.o(.text) for __default_signal_display
    defsig_rtmem_inner.o(.text) refers to defsig_general.o(.text) for __default_signal_display
    defsig_rtmem_outer.o(.text) refers to defsig_rtmem_inner.o(.text) for __rt_SIGRTMEM_inner
    defsig_rtmem_outer.o(.text) refers to defsig_exit.o(.text) for __sig_exit
    defsig_rtmem_formal.o(.text) refers to rt_raise.o(.text) for __rt_raise
    defsig_stak_inner.o(.text) refers to defsig_general.o(.text) for __default_signal_display
    defsig_pvfn_inner.o(.text) refers to defsig_general.o(.text) for __default_signal_display
    defsig_cppl_inner.o(.text) refers to defsig_general.o(.text) for __default_signal_display
    defsig_segv_inner.o(.text) refers to defsig_general.o(.text) for __default_signal_display
    defsig_other.o(.text) refers to defsig_general.o(.text) for __default_signal_display


==============================================================================

Removing Unused input sections from the image.

    Removing main.o(.rev16_text), (4 bytes).
    Removing main.o(.revsh_text), (4 bytes).
    Removing main.o(.rrx_text), (6 bytes).
    Removing main.o(.data), (64 bytes).
    Removing stm32f7xx_it.o(.rev16_text), (4 bytes).
    Removing stm32f7xx_it.o(.revsh_text), (4 bytes).
    Removing stm32f7xx_it.o(.rrx_text), (6 bytes).
    Removing system_stm32f7xx.o(.rev16_text), (4 bytes).
    Removing system_stm32f7xx.o(.revsh_text), (4 bytes).
    Removing system_stm32f7xx.o(.rrx_text), (6 bytes).
    Removing system_stm32f7xx.o(i.SystemCoreClockUpdate), (192 bytes).
    Removing stm32f7xx_hal.o(.rev16_text), (4 bytes).
    Removing stm32f7xx_hal.o(.revsh_text), (4 bytes).
    Removing stm32f7xx_hal.o(.rrx_text), (6 bytes).
    Removing stm32f7xx_hal.o(i.HAL_DBGMCU_DisableDBGSleepMode), (20 bytes).
    Removing stm32f7xx_hal.o(i.HAL_DBGMCU_DisableDBGStandbyMode), (20 bytes).
    Removing stm32f7xx_hal.o(i.HAL_DBGMCU_DisableDBGStopMode), (20 bytes).
    Removing stm32f7xx_hal.o(i.HAL_DBGMCU_EnableDBGSleepMode), (20 bytes).
    Removing stm32f7xx_hal.o(i.HAL_DBGMCU_EnableDBGStandbyMode), (20 bytes).
    Removing stm32f7xx_hal.o(i.HAL_DBGMCU_EnableDBGStopMode), (20 bytes).
    Removing stm32f7xx_hal.o(i.HAL_DeInit), (68 bytes).
    Removing stm32f7xx_hal.o(i.HAL_Delay), (26 bytes).
    Removing stm32f7xx_hal.o(i.HAL_DisableCompensationCell), (20 bytes).
    Removing stm32f7xx_hal.o(i.HAL_DisableFMCMemorySwapping), (20 bytes).
    Removing stm32f7xx_hal.o(i.HAL_DisableMemorySwappingBank), (20 bytes).
    Removing stm32f7xx_hal.o(i.HAL_EnableCompensationCell), (20 bytes).
    Removing stm32f7xx_hal.o(i.HAL_EnableFMCMemorySwapping), (20 bytes).
    Removing stm32f7xx_hal.o(i.HAL_EnableMemorySwappingBank), (20 bytes).
    Removing stm32f7xx_hal.o(i.HAL_GetDEVID), (16 bytes).
    Removing stm32f7xx_hal.o(i.HAL_GetHalVersion), (8 bytes).
    Removing stm32f7xx_hal.o(i.HAL_GetREVID), (12 bytes).
    Removing stm32f7xx_hal.o(i.HAL_MspDeInit), (2 bytes).
    Removing stm32f7xx_hal.o(i.HAL_ResumeTick), (18 bytes).
    Removing stm32f7xx_hal.o(i.HAL_SuspendTick), (18 bytes).
    Removing stm32f7xx_hal_cortex.o(.rev16_text), (4 bytes).
    Removing stm32f7xx_hal_cortex.o(.revsh_text), (4 bytes).
    Removing stm32f7xx_hal_cortex.o(.rrx_text), (6 bytes).
    Removing stm32f7xx_hal_cortex.o(i.HAL_NVIC_ClearPendingIRQ), (28 bytes).
    Removing stm32f7xx_hal_cortex.o(i.HAL_NVIC_DisableIRQ), (28 bytes).
    Removing stm32f7xx_hal_cortex.o(i.HAL_NVIC_GetActive), (40 bytes).
    Removing stm32f7xx_hal_cortex.o(i.HAL_NVIC_GetPendingIRQ), (40 bytes).
    Removing stm32f7xx_hal_cortex.o(i.HAL_NVIC_GetPriority), (148 bytes).
    Removing stm32f7xx_hal_cortex.o(i.HAL_NVIC_GetPriorityGrouping), (8 bytes).
    Removing stm32f7xx_hal_cortex.o(i.HAL_NVIC_SetPendingIRQ), (28 bytes).
    Removing stm32f7xx_hal_cortex.o(i.HAL_NVIC_SystemReset), (68 bytes).
    Removing stm32f7xx_hal_cortex.o(i.HAL_SYSTICK_Callback), (2 bytes).
    Removing stm32f7xx_hal_cortex.o(i.HAL_SYSTICK_IRQHandler), (8 bytes).
    Removing stm32f7xx_hal_dma.o(.rev16_text), (4 bytes).
    Removing stm32f7xx_hal_dma.o(.revsh_text), (4 bytes).
    Removing stm32f7xx_hal_dma.o(.rrx_text), (6 bytes).
    Removing stm32f7xx_hal_dma.o(i.DMA_CalcBaseAndBitshift), (52 bytes).
    Removing stm32f7xx_hal_dma.o(i.DMA_CheckFifoParam), (186 bytes).
    Removing stm32f7xx_hal_dma.o(i.DMA_SetConfig), (44 bytes).
    Removing stm32f7xx_hal_dma.o(i.HAL_DMA_Abort), (170 bytes).
    Removing stm32f7xx_hal_dma.o(i.HAL_DMA_Abort_IT), (40 bytes).
    Removing stm32f7xx_hal_dma.o(i.HAL_DMA_DeInit), (98 bytes).
    Removing stm32f7xx_hal_dma.o(i.HAL_DMA_GetError), (6 bytes).
    Removing stm32f7xx_hal_dma.o(i.HAL_DMA_GetState), (8 bytes).
    Removing stm32f7xx_hal_dma.o(i.HAL_DMA_IRQHandler), (584 bytes).
    Removing stm32f7xx_hal_dma.o(i.HAL_DMA_Init), (232 bytes).
    Removing stm32f7xx_hal_dma.o(i.HAL_DMA_PollForTransfer), (324 bytes).
    Removing stm32f7xx_hal_dma.o(i.HAL_DMA_RegisterCallback), (94 bytes).
    Removing stm32f7xx_hal_dma.o(i.HAL_DMA_Start), (102 bytes).
    Removing stm32f7xx_hal_dma.o(i.HAL_DMA_Start_IT), (158 bytes).
    Removing stm32f7xx_hal_dma.o(i.HAL_DMA_UnRegisterCallback), (124 bytes).
    Removing stm32f7xx_hal_dma.o(.constdata), (8 bytes).
    Removing stm32f7xx_hal_dma_ex.o(.rev16_text), (4 bytes).
    Removing stm32f7xx_hal_dma_ex.o(.revsh_text), (4 bytes).
    Removing stm32f7xx_hal_dma_ex.o(.rrx_text), (6 bytes).
    Removing stm32f7xx_hal_dma_ex.o(i.DMA_MultiBufferSetConfig), (32 bytes).
    Removing stm32f7xx_hal_dma_ex.o(i.HAL_DMAEx_ChangeMemory), (18 bytes).
    Removing stm32f7xx_hal_dma_ex.o(i.HAL_DMAEx_MultiBufferStart), (124 bytes).
    Removing stm32f7xx_hal_dma_ex.o(i.HAL_DMAEx_MultiBufferStart_IT), (4044 bytes).
    Removing stm32f7xx_hal_gpio.o(.rev16_text), (4 bytes).
    Removing stm32f7xx_hal_gpio.o(.revsh_text), (4 bytes).
    Removing stm32f7xx_hal_gpio.o(.rrx_text), (6 bytes).
    Removing stm32f7xx_hal_gpio.o(i.HAL_GPIO_DeInit), (384 bytes).
    Removing stm32f7xx_hal_gpio.o(i.HAL_GPIO_EXTI_Callback), (2 bytes).
    Removing stm32f7xx_hal_gpio.o(i.HAL_GPIO_EXTI_IRQHandler), (28 bytes).
    Removing stm32f7xx_hal_gpio.o(i.HAL_GPIO_LockPin), (46 bytes).
    Removing stm32f7xx_hal_pwr.o(.rev16_text), (4 bytes).
    Removing stm32f7xx_hal_pwr.o(.revsh_text), (4 bytes).
    Removing stm32f7xx_hal_pwr.o(.rrx_text), (6 bytes).
    Removing stm32f7xx_hal_pwr.o(i.HAL_PWR_ConfigPVD), (180 bytes).
    Removing stm32f7xx_hal_pwr.o(i.HAL_PWR_DeInit), (28 bytes).
    Removing stm32f7xx_hal_pwr.o(i.HAL_PWR_DisableBkUpAccess), (20 bytes).
    Removing stm32f7xx_hal_pwr.o(i.HAL_PWR_DisablePVD), (20 bytes).
    Removing stm32f7xx_hal_pwr.o(i.HAL_PWR_DisableSEVOnPend), (20 bytes).
    Removing stm32f7xx_hal_pwr.o(i.HAL_PWR_DisableSleepOnExit), (20 bytes).
    Removing stm32f7xx_hal_pwr.o(i.HAL_PWR_DisableWakeUpPin), (16 bytes).
    Removing stm32f7xx_hal_pwr.o(i.HAL_PWR_EnableBkUpAccess), (20 bytes).
    Removing stm32f7xx_hal_pwr.o(i.HAL_PWR_EnablePVD), (20 bytes).
    Removing stm32f7xx_hal_pwr.o(i.HAL_PWR_EnableSEVOnPend), (20 bytes).
    Removing stm32f7xx_hal_pwr.o(i.HAL_PWR_EnableSleepOnExit), (20 bytes).
    Removing stm32f7xx_hal_pwr.o(i.HAL_PWR_EnableWakeUpPin), (40 bytes).
    Removing stm32f7xx_hal_pwr.o(i.HAL_PWR_EnterSLEEPMode), (32 bytes).
    Removing stm32f7xx_hal_pwr.o(i.HAL_PWR_EnterSTANDBYMode), (40 bytes).
    Removing stm32f7xx_hal_pwr.o(i.HAL_PWR_EnterSTOPMode), (68 bytes).
    Removing stm32f7xx_hal_pwr.o(i.HAL_PWR_PVDCallback), (2 bytes).
    Removing stm32f7xx_hal_pwr.o(i.HAL_PWR_PVD_IRQHandler), (32 bytes).
    Removing stm32f7xx_hal_pwr_ex.o(.rev16_text), (4 bytes).
    Removing stm32f7xx_hal_pwr_ex.o(.revsh_text), (4 bytes).
    Removing stm32f7xx_hal_pwr_ex.o(.rrx_text), (6 bytes).
    Removing stm32f7xx_hal_pwr_ex.o(i.HAL_PWREx_ControlVoltageScaling), (236 bytes).
    Removing stm32f7xx_hal_pwr_ex.o(i.HAL_PWREx_DisableBkUpReg), (72 bytes).
    Removing stm32f7xx_hal_pwr_ex.o(i.HAL_PWREx_DisableFlashPowerDown), (20 bytes).
    Removing stm32f7xx_hal_pwr_ex.o(i.HAL_PWREx_DisableLowRegulatorLowVoltage), (20 bytes).
    Removing stm32f7xx_hal_pwr_ex.o(i.HAL_PWREx_DisableMainRegulatorLowVoltage), (20 bytes).
    Removing stm32f7xx_hal_pwr_ex.o(i.HAL_PWREx_DisableOverDrive), (144 bytes).
    Removing stm32f7xx_hal_pwr_ex.o(i.HAL_PWREx_EnableBkUpReg), (72 bytes).
    Removing stm32f7xx_hal_pwr_ex.o(i.HAL_PWREx_EnableFlashPowerDown), (20 bytes).
    Removing stm32f7xx_hal_pwr_ex.o(i.HAL_PWREx_EnableLowRegulatorLowVoltage), (20 bytes).
    Removing stm32f7xx_hal_pwr_ex.o(i.HAL_PWREx_EnableMainRegulatorLowVoltage), (20 bytes).
    Removing stm32f7xx_hal_pwr_ex.o(i.HAL_PWREx_EnterUnderDriveSTOPMode), (164 bytes).
    Removing stm32f7xx_hal_pwr_ex.o(i.HAL_PWREx_GetVoltageRange), (16 bytes).
    Removing stm32f7xx_hal_rcc.o(.rev16_text), (4 bytes).
    Removing stm32f7xx_hal_rcc.o(.revsh_text), (4 bytes).
    Removing stm32f7xx_hal_rcc.o(.rrx_text), (6 bytes).
    Removing stm32f7xx_hal_rcc.o(i.HAL_RCC_CSSCallback), (2 bytes).
    Removing stm32f7xx_hal_rcc.o(i.HAL_RCC_DeInit), (128 bytes).
    Removing stm32f7xx_hal_rcc.o(i.HAL_RCC_DisableCSS), (20 bytes).
    Removing stm32f7xx_hal_rcc.o(i.HAL_RCC_EnableCSS), (20 bytes).
    Removing stm32f7xx_hal_rcc.o(i.HAL_RCC_GetClockConfig), (68 bytes).
    Removing stm32f7xx_hal_rcc.o(i.HAL_RCC_GetOscConfig), (296 bytes).
    Removing stm32f7xx_hal_rcc.o(i.HAL_RCC_MCOConfig), (184 bytes).
    Removing stm32f7xx_hal_rcc.o(i.HAL_RCC_NMI_IRQHandler), (32 bytes).
    Removing stm32f7xx_hal_rcc.o(i.HAL_RCC_OscConfig), (1216 bytes).
    Removing stm32f7xx_hal_rcc_ex.o(.rev16_text), (4 bytes).
    Removing stm32f7xx_hal_rcc_ex.o(.revsh_text), (4 bytes).
    Removing stm32f7xx_hal_rcc_ex.o(.rrx_text), (6 bytes).
    Removing stm32f7xx_hal_rcc_ex.o(i.HAL_RCCEx_GetPeriphCLKConfig), (604 bytes).
    Removing stm32f7xx_hal_rcc_ex.o(i.HAL_RCCEx_GetPeriphCLKFreq), (516 bytes).
    Removing stm32f7xx_hal_uart.o(.rev16_text), (4 bytes).
    Removing stm32f7xx_hal_uart.o(.revsh_text), (4 bytes).
    Removing stm32f7xx_hal_uart.o(.rrx_text), (6 bytes).
    Removing stm32f7xx_hal_uart.o(i.HAL_HalfDuplex_EnableReceiver), (74 bytes).
    Removing stm32f7xx_hal_uart.o(i.HAL_HalfDuplex_EnableTransmitter), (74 bytes).
    Removing stm32f7xx_hal_uart.o(i.HAL_HalfDuplex_Init), (124 bytes).
    Removing stm32f7xx_hal_uart.o(i.HAL_LIN_Init), (140 bytes).
    Removing stm32f7xx_hal_uart.o(i.HAL_LIN_SendBreak), (62 bytes).
    Removing stm32f7xx_hal_uart.o(i.HAL_MultiProcessorEx_AddressLength_Set), (64 bytes).
    Removing stm32f7xx_hal_uart.o(i.HAL_MultiProcessor_DisableMuteMode), (58 bytes).
    Removing stm32f7xx_hal_uart.o(i.HAL_MultiProcessor_EnableMuteMode), (58 bytes).
    Removing stm32f7xx_hal_uart.o(i.HAL_MultiProcessor_EnterMuteMode), (14 bytes).
    Removing stm32f7xx_hal_uart.o(i.HAL_MultiProcessor_Init), (148 bytes).
    Removing stm32f7xx_hal_uart.o(i.HAL_RS485Ex_Init), (156 bytes).
    Removing stm32f7xx_hal_uart.o(i.HAL_UART_DMAPause), (122 bytes).
    Removing stm32f7xx_hal_uart.o(i.HAL_UART_DMAResume), (120 bytes).
    Removing stm32f7xx_hal_uart.o(i.HAL_UART_DMAStop), (100 bytes).
    Removing stm32f7xx_hal_uart.o(i.HAL_UART_DeInit), (72 bytes).
    Removing stm32f7xx_hal_uart.o(i.HAL_UART_ErrorCallback), (2 bytes).
    Removing stm32f7xx_hal_uart.o(i.HAL_UART_GetError), (6 bytes).
    Removing stm32f7xx_hal_uart.o(i.HAL_UART_GetState), (20 bytes).
    Removing stm32f7xx_hal_uart.o(i.HAL_UART_IRQHandler), (348 bytes).
    Removing stm32f7xx_hal_uart.o(i.HAL_UART_MspDeInit), (2 bytes).
    Removing stm32f7xx_hal_uart.o(i.HAL_UART_MspInit), (2 bytes).
    Removing stm32f7xx_hal_uart.o(i.HAL_UART_Receive_DMA), (172 bytes).
    Removing stm32f7xx_hal_uart.o(i.HAL_UART_Receive_IT), (200 bytes).
    Removing stm32f7xx_hal_uart.o(i.HAL_UART_RxCpltCallback), (2 bytes).
    Removing stm32f7xx_hal_uart.o(i.HAL_UART_RxHalfCpltCallback), (2 bytes).
    Removing stm32f7xx_hal_uart.o(i.HAL_UART_Transmit_DMA), (160 bytes).
    Removing stm32f7xx_hal_uart.o(i.HAL_UART_Transmit_IT), (90 bytes).
    Removing stm32f7xx_hal_uart.o(i.HAL_UART_TxCpltCallback), (2 bytes).
    Removing stm32f7xx_hal_uart.o(i.HAL_UART_TxHalfCpltCallback), (2 bytes).
    Removing stm32f7xx_hal_uart.o(i.UART_DMAAbortOnError), (24 bytes).
    Removing stm32f7xx_hal_uart.o(i.UART_DMAError), (78 bytes).
    Removing stm32f7xx_hal_uart.o(i.UART_DMAReceiveCplt), (72 bytes).
    Removing stm32f7xx_hal_uart.o(i.UART_DMARxHalfCplt), (14 bytes).
    Removing stm32f7xx_hal_uart.o(i.UART_DMATransmitCplt), (56 bytes).
    Removing stm32f7xx_hal_uart.o(i.UART_DMATxHalfCplt), (14 bytes).
    Removing stm32f7xx_hal_uart.o(i.UART_EndRxTransfer), (32 bytes).
    Removing stm32f7xx_hal_uart.o(i.UART_EndTransmit_IT), (32 bytes).
    Removing stm32f7xx_hal_uart.o(i.UART_EndTxTransfer), (20 bytes).
    Removing stm32f7xx_hal_uart.o(i.UART_Receive_IT), (136 bytes).
    Removing stm32f7xx_hal_uart.o(i.UART_Transmit_IT), (106 bytes).
    Removing stm32f7xx_hal_usart.o(.rev16_text), (4 bytes).
    Removing stm32f7xx_hal_usart.o(.revsh_text), (4 bytes).
    Removing stm32f7xx_hal_usart.o(.rrx_text), (6 bytes).
    Removing stm32f7xx_hal_usart.o(i.HAL_USART_DMAPause), (138 bytes).
    Removing stm32f7xx_hal_usart.o(i.HAL_USART_DMAResume), (150 bytes).
    Removing stm32f7xx_hal_usart.o(i.HAL_USART_DMAStop), (100 bytes).
    Removing stm32f7xx_hal_usart.o(i.HAL_USART_DeInit), (56 bytes).
    Removing stm32f7xx_hal_usart.o(i.HAL_USART_ErrorCallback), (2 bytes).
    Removing stm32f7xx_hal_usart.o(i.HAL_USART_GetError), (6 bytes).
    Removing stm32f7xx_hal_usart.o(i.HAL_USART_GetState), (8 bytes).
    Removing stm32f7xx_hal_usart.o(i.HAL_USART_IRQHandler), (372 bytes).
    Removing stm32f7xx_hal_usart.o(i.HAL_USART_Init), (102 bytes).
    Removing stm32f7xx_hal_usart.o(i.HAL_USART_MspDeInit), (2 bytes).
    Removing stm32f7xx_hal_usart.o(i.HAL_USART_MspInit), (2 bytes).
    Removing stm32f7xx_hal_usart.o(i.HAL_USART_Receive), (280 bytes).
    Removing stm32f7xx_hal_usart.o(i.HAL_USART_Receive_DMA), (244 bytes).
    Removing stm32f7xx_hal_usart.o(i.HAL_USART_Receive_IT), (208 bytes).
    Removing stm32f7xx_hal_usart.o(i.HAL_USART_RxCpltCallback), (2 bytes).
    Removing stm32f7xx_hal_usart.o(i.HAL_USART_RxHalfCpltCallback), (2 bytes).
    Removing stm32f7xx_hal_usart.o(i.HAL_USART_Transmit), (190 bytes).
    Removing stm32f7xx_hal_usart.o(i.HAL_USART_TransmitReceive), (336 bytes).
    Removing stm32f7xx_hal_usart.o(i.HAL_USART_TransmitReceive_DMA), (260 bytes).
    Removing stm32f7xx_hal_usart.o(i.HAL_USART_TransmitReceive_IT), (204 bytes).
    Removing stm32f7xx_hal_usart.o(i.HAL_USART_Transmit_DMA), (172 bytes).
    Removing stm32f7xx_hal_usart.o(i.HAL_USART_Transmit_IT), (88 bytes).
    Removing stm32f7xx_hal_usart.o(i.HAL_USART_TxCpltCallback), (2 bytes).
    Removing stm32f7xx_hal_usart.o(i.HAL_USART_TxHalfCpltCallback), (2 bytes).
    Removing stm32f7xx_hal_usart.o(i.HAL_USART_TxRxCpltCallback), (2 bytes).
    Removing stm32f7xx_hal_usart.o(i.USART_CheckIdleState), (120 bytes).
    Removing stm32f7xx_hal_usart.o(i.USART_DMAAbortOnError), (20 bytes).
    Removing stm32f7xx_hal_usart.o(i.USART_DMAError), (82 bytes).
    Removing stm32f7xx_hal_usart.o(i.USART_DMAReceiveCplt), (122 bytes).
    Removing stm32f7xx_hal_usart.o(i.USART_DMARxHalfCplt), (14 bytes).
    Removing stm32f7xx_hal_usart.o(i.USART_DMATransmitCplt), (70 bytes).
    Removing stm32f7xx_hal_usart.o(i.USART_DMATxHalfCplt), (14 bytes).
    Removing stm32f7xx_hal_usart.o(i.USART_EndRxTransfer), (32 bytes).
    Removing stm32f7xx_hal_usart.o(i.USART_EndTransmit_IT), (44 bytes).
    Removing stm32f7xx_hal_usart.o(i.USART_EndTxTransfer), (20 bytes).
    Removing stm32f7xx_hal_usart.o(i.USART_Receive_IT), (136 bytes).
    Removing stm32f7xx_hal_usart.o(i.USART_SetConfig), (532 bytes).
    Removing stm32f7xx_hal_usart.o(i.USART_TransmitReceive_IT), (224 bytes).
    Removing stm32f7xx_hal_usart.o(i.USART_Transmit_IT), (100 bytes).
    Removing stm32f7xx_hal_usart.o(i.USART_WaitOnFlagUntilTimeout), (128 bytes).
    Removing stm32f7xx_hal_ltdc.o(.rev16_text), (4 bytes).
    Removing stm32f7xx_hal_ltdc.o(.revsh_text), (4 bytes).
    Removing stm32f7xx_hal_ltdc.o(.rrx_text), (6 bytes).
    Removing stm32f7xx_hal_ltdc.o(i.HAL_LTDC_ConfigCLUT), (180 bytes).
    Removing stm32f7xx_hal_ltdc.o(i.HAL_LTDC_ConfigColorKeying), (96 bytes).
    Removing stm32f7xx_hal_ltdc.o(i.HAL_LTDC_ConfigColorKeying_NoReload), (92 bytes).
    Removing stm32f7xx_hal_ltdc.o(i.HAL_LTDC_ConfigLayer_NoReload), (90 bytes).
    Removing stm32f7xx_hal_ltdc.o(i.HAL_LTDC_DeInit), (30 bytes).
    Removing stm32f7xx_hal_ltdc.o(i.HAL_LTDC_DisableCLUT), (76 bytes).
    Removing stm32f7xx_hal_ltdc.o(i.HAL_LTDC_DisableCLUT_NoReload), (72 bytes).
    Removing stm32f7xx_hal_ltdc.o(i.HAL_LTDC_DisableColorKeying), (76 bytes).
    Removing stm32f7xx_hal_ltdc.o(i.HAL_LTDC_DisableColorKeying_NoReload), (72 bytes).
    Removing stm32f7xx_hal_ltdc.o(i.HAL_LTDC_DisableDither), (68 bytes).
    Removing stm32f7xx_hal_ltdc.o(i.HAL_LTDC_EnableCLUT), (76 bytes).
    Removing stm32f7xx_hal_ltdc.o(i.HAL_LTDC_EnableCLUT_NoReload), (72 bytes).
    Removing stm32f7xx_hal_ltdc.o(i.HAL_LTDC_EnableColorKeying), (76 bytes).
    Removing stm32f7xx_hal_ltdc.o(i.HAL_LTDC_EnableColorKeying_NoReload), (72 bytes).
    Removing stm32f7xx_hal_ltdc.o(i.HAL_LTDC_EnableDither), (68 bytes).
    Removing stm32f7xx_hal_ltdc.o(i.HAL_LTDC_ErrorCallback), (2 bytes).
    Removing stm32f7xx_hal_ltdc.o(i.HAL_LTDC_GetError), (8 bytes).
    Removing stm32f7xx_hal_ltdc.o(i.HAL_LTDC_GetState), (8 bytes).
    Removing stm32f7xx_hal_ltdc.o(i.HAL_LTDC_IRQHandler), (268 bytes).
    Removing stm32f7xx_hal_ltdc.o(i.HAL_LTDC_LineEventCallback), (2 bytes).
    Removing stm32f7xx_hal_ltdc.o(i.HAL_LTDC_MspDeInit), (2 bytes).
    Removing stm32f7xx_hal_ltdc.o(i.HAL_LTDC_MspInit), (2 bytes).
    Removing stm32f7xx_hal_ltdc.o(i.HAL_LTDC_ProgramLineEvent), (72 bytes).
    Removing stm32f7xx_hal_ltdc.o(i.HAL_LTDC_Reload), (66 bytes).
    Removing stm32f7xx_hal_ltdc.o(i.HAL_LTDC_ReloadEventCallback), (2 bytes).
    Removing stm32f7xx_hal_ltdc.o(i.HAL_LTDC_SetAddress), (92 bytes).
    Removing stm32f7xx_hal_ltdc.o(i.HAL_LTDC_SetAddress_NoReload), (88 bytes).
    Removing stm32f7xx_hal_ltdc.o(i.HAL_LTDC_SetAlpha), (92 bytes).
    Removing stm32f7xx_hal_ltdc.o(i.HAL_LTDC_SetAlpha_NoReload), (88 bytes).
    Removing stm32f7xx_hal_ltdc.o(i.HAL_LTDC_SetPitch), (208 bytes).
    Removing stm32f7xx_hal_ltdc.o(i.HAL_LTDC_SetPitch_NoReload), (180 bytes).
    Removing stm32f7xx_hal_ltdc.o(i.HAL_LTDC_SetPixelFormat), (92 bytes).
    Removing stm32f7xx_hal_ltdc.o(i.HAL_LTDC_SetPixelFormat_NoReload), (88 bytes).
    Removing stm32f7xx_hal_ltdc.o(i.HAL_LTDC_SetWindowPosition_NoReload), (104 bytes).
    Removing stm32f7xx_hal_ltdc.o(i.HAL_LTDC_SetWindowSize_NoReload), (112 bytes).
    Removing stm32f7xx_hal_ltdc_ex.o(.rev16_text), (4 bytes).
    Removing stm32f7xx_hal_ltdc_ex.o(.revsh_text), (4 bytes).
    Removing stm32f7xx_hal_ltdc_ex.o(.rrx_text), (6 bytes).
    Removing stm32f7xx_hal_sram.o(.rev16_text), (4 bytes).
    Removing stm32f7xx_hal_sram.o(.revsh_text), (4 bytes).
    Removing stm32f7xx_hal_sram.o(.rrx_text), (6 bytes).
    Removing stm32f7xx_hal_sram.o(i.HAL_SRAM_DMA_XferCpltCallback), (2 bytes).
    Removing stm32f7xx_hal_sram.o(i.HAL_SRAM_DMA_XferErrorCallback), (2 bytes).
    Removing stm32f7xx_hal_sram.o(i.HAL_SRAM_DeInit), (34 bytes).
    Removing stm32f7xx_hal_sram.o(i.HAL_SRAM_GetState), (8 bytes).
    Removing stm32f7xx_hal_sram.o(i.HAL_SRAM_MspDeInit), (2 bytes).
    Removing stm32f7xx_hal_sram.o(i.HAL_SRAM_MspInit), (2 bytes).
    Removing stm32f7xx_hal_sram.o(i.HAL_SRAM_Read_16b), (70 bytes).
    Removing stm32f7xx_hal_sram.o(i.HAL_SRAM_Read_32b), (68 bytes).
    Removing stm32f7xx_hal_sram.o(i.HAL_SRAM_Read_8b), (70 bytes).
    Removing stm32f7xx_hal_sram.o(i.HAL_SRAM_Read_DMA), (96 bytes).
    Removing stm32f7xx_hal_sram.o(i.HAL_SRAM_WriteOperation_Disable), (60 bytes).
    Removing stm32f7xx_hal_sram.o(i.HAL_SRAM_WriteOperation_Enable), (54 bytes).
    Removing stm32f7xx_hal_sram.o(i.HAL_SRAM_Write_16b), (82 bytes).
    Removing stm32f7xx_hal_sram.o(i.HAL_SRAM_Write_32b), (80 bytes).
    Removing stm32f7xx_hal_sram.o(i.HAL_SRAM_Write_8b), (82 bytes).
    Removing stm32f7xx_hal_sram.o(i.HAL_SRAM_Write_DMA), (108 bytes).
    Removing stm32f7xx_ll_fmc.o(.rev16_text), (4 bytes).
    Removing stm32f7xx_ll_fmc.o(.revsh_text), (4 bytes).
    Removing stm32f7xx_ll_fmc.o(.rrx_text), (6 bytes).
    Removing stm32f7xx_ll_fmc.o(i.FMC_NAND_AttributeSpace_Timing_Init), (40 bytes).
    Removing stm32f7xx_ll_fmc.o(i.FMC_NAND_CommonSpace_Timing_Init), (40 bytes).
    Removing stm32f7xx_ll_fmc.o(i.FMC_NAND_DeInit), (30 bytes).
    Removing stm32f7xx_ll_fmc.o(i.FMC_NAND_ECC_Disable), (14 bytes).
    Removing stm32f7xx_ll_fmc.o(i.FMC_NAND_ECC_Enable), (14 bytes).
    Removing stm32f7xx_ll_fmc.o(i.FMC_NAND_GetECC), (62 bytes).
    Removing stm32f7xx_ll_fmc.o(i.FMC_NAND_Init), (56 bytes).
    Removing stm32f7xx_ll_fmc.o(i.FMC_NORSRAM_DeInit), (56 bytes).
    Removing stm32f7xx_ll_fmc.o(i.FMC_NORSRAM_WriteOperation_Disable), (18 bytes).
    Removing stm32f7xx_ll_fmc.o(i.FMC_NORSRAM_WriteOperation_Enable), (18 bytes).
    Removing stm32f7xx_ll_fmc.o(i.FMC_SDRAM_DeInit), (32 bytes).
    Removing stm32f7xx_ll_fmc.o(i.FMC_SDRAM_GetModeStatus), (24 bytes).
    Removing stm32f7xx_ll_fmc.o(i.FMC_SDRAM_SetAutoRefreshNumber), (14 bytes).
    Removing stm32f7xx_ll_fmc.o(i.FMC_SDRAM_WriteProtection_Disable), (18 bytes).
    Removing stm32f7xx_ll_fmc.o(i.FMC_SDRAM_WriteProtection_Enable), (18 bytes).
    Removing stm32f7xx_hal_sdram.o(.rev16_text), (4 bytes).
    Removing stm32f7xx_hal_sdram.o(.revsh_text), (4 bytes).
    Removing stm32f7xx_hal_sdram.o(.rrx_text), (6 bytes).
    Removing stm32f7xx_hal_sdram.o(i.HAL_SDRAM_DMA_XferCpltCallback), (2 bytes).
    Removing stm32f7xx_hal_sdram.o(i.HAL_SDRAM_DMA_XferErrorCallback), (2 bytes).
    Removing stm32f7xx_hal_sdram.o(i.HAL_SDRAM_DeInit), (34 bytes).
    Removing stm32f7xx_hal_sdram.o(i.HAL_SDRAM_GetModeStatus), (14 bytes).
    Removing stm32f7xx_hal_sdram.o(i.HAL_SDRAM_GetState), (8 bytes).
    Removing stm32f7xx_hal_sdram.o(i.HAL_SDRAM_IRQHandler), (34 bytes).
    Removing stm32f7xx_hal_sdram.o(i.HAL_SDRAM_MspDeInit), (2 bytes).
    Removing stm32f7xx_hal_sdram.o(i.HAL_SDRAM_MspInit), (2 bytes).
    Removing stm32f7xx_hal_sdram.o(i.HAL_SDRAM_Read_16b), (80 bytes).
    Removing stm32f7xx_hal_sdram.o(i.HAL_SDRAM_Read_32b), (80 bytes).
    Removing stm32f7xx_hal_sdram.o(i.HAL_SDRAM_Read_8b), (80 bytes).
    Removing stm32f7xx_hal_sdram.o(i.HAL_SDRAM_Read_DMA), (104 bytes).
    Removing stm32f7xx_hal_sdram.o(i.HAL_SDRAM_RefreshErrorCallback), (2 bytes).
    Removing stm32f7xx_hal_sdram.o(i.HAL_SDRAM_SetAutoRefreshNumber), (40 bytes).
    Removing stm32f7xx_hal_sdram.o(i.HAL_SDRAM_WriteProtection_Disable), (38 bytes).
    Removing stm32f7xx_hal_sdram.o(i.HAL_SDRAM_WriteProtection_Enable), (38 bytes).
    Removing stm32f7xx_hal_sdram.o(i.HAL_SDRAM_Write_16b), (86 bytes).
    Removing stm32f7xx_hal_sdram.o(i.HAL_SDRAM_Write_32b), (86 bytes).
    Removing stm32f7xx_hal_sdram.o(i.HAL_SDRAM_Write_8b), (86 bytes).
    Removing stm32f7xx_hal_sdram.o(i.HAL_SDRAM_Write_DMA), (108 bytes).
    Removing delay.o(.rev16_text), (4 bytes).
    Removing delay.o(.revsh_text), (4 bytes).
    Removing delay.o(.rrx_text), (6 bytes).
    Removing sys.o(.rev16_text), (4 bytes).
    Removing sys.o(.revsh_text), (4 bytes).
    Removing sys.o(.rrx_text), (6 bytes).
    Removing sys.o(.emb_text), (16 bytes).
    Removing sys.o(i.Get_DCahceSta), (16 bytes).
    Removing sys.o(i.Get_ICahceSta), (16 bytes).
    Removing usart.o(.rev16_text), (4 bytes).
    Removing usart.o(.revsh_text), (4 bytes).
    Removing usart.o(.rrx_text), (6 bytes).
    Removing usart.o(i.Check_Receivedata), (64 bytes).
    Removing usart.o(i.fputc), (28 bytes).
    Removing usart.o(i.uart3_init), (44 bytes).
    Removing led.o(.rev16_text), (4 bytes).
    Removing led.o(.revsh_text), (4 bytes).
    Removing led.o(.rrx_text), (6 bytes).
    Removing key.o(.rev16_text), (4 bytes).
    Removing key.o(.revsh_text), (4 bytes).
    Removing key.o(.rrx_text), (6 bytes).
    Removing key.o(i.KEY_Init), (168 bytes).
    Removing key.o(i.KEY_Scan), (208 bytes).
    Removing key.o(.data), (1 bytes).
    Removing lcd.o(.rev16_text), (4 bytes).
    Removing lcd.o(.revsh_text), (4 bytes).
    Removing lcd.o(.rrx_text), (6 bytes).
    Removing lcd.o(i.LCD_BGR2RGB), (26 bytes).
    Removing lcd.o(i.LCD_Color_Fill), (124 bytes).
    Removing lcd.o(i.LCD_DisplayOff), (92 bytes).
    Removing lcd.o(i.LCD_DisplayOn), (92 bytes).
    Removing lcd.o(i.LCD_DrawLine), (176 bytes).
    Removing lcd.o(i.LCD_DrawPoint), (60 bytes).
    Removing lcd.o(i.LCD_DrawRectangle), (64 bytes).
    Removing lcd.o(i.LCD_Draw_Circle), (152 bytes).
    Removing lcd.o(i.LCD_Fill), (112 bytes).
    Removing lcd.o(i.LCD_ReadPoint), (204 bytes).
    Removing lcd.o(i.LCD_ReadReg), (22 bytes).
    Removing lcd.o(i.LCD_Set_Window), (404 bytes).
    Removing lcd.o(i.LCD_WriteRAM), (12 bytes).
    Removing lcd.o(i.opt_delay), (14 bytes).
    Removing ltdc.o(.rev16_text), (4 bytes).
    Removing ltdc.o(.revsh_text), (4 bytes).
    Removing ltdc.o(.rrx_text), (6 bytes).
    Removing ltdc.o(i.LTDC_Color_Fill), (336 bytes).
    Removing ltdc.o(i.LTDC_Layer_Switch), (80 bytes).
    Removing ltdc.o(i.LTDC_Read_Point), (80 bytes).
    Removing ltdc.o(i.LTDC_Switch), (48 bytes).
    Removing sdram.o(.rev16_text), (4 bytes).
    Removing sdram.o(.revsh_text), (4 bytes).
    Removing sdram.o(.rrx_text), (6 bytes).
    Removing sdram.o(i.FMC_SDRAM_ReadBuffer), (22 bytes).
    Removing sdram.o(i.FMC_SDRAM_WriteBuffer), (24 bytes).
    Removing dma.o(.rev16_text), (4 bytes).
    Removing dma.o(.revsh_text), (4 bytes).
    Removing dma.o(.rrx_text), (6 bytes).
    Removing dma.o(i.MYDMA_Config), (124 bytes).
    Removing dma.o(i.Watit_Sendcomplete), (192 bytes).
    Removing dma.o(.bss), (96 bytes).
    Removing servo.o(.rev16_text), (4 bytes).
    Removing servo.o(.revsh_text), (4 bytes).
    Removing servo.o(.rrx_text), (6 bytes).
    Removing servo.o(i.Check_Sum), (88 bytes).
    Removing servo.o(i.Data_Init), (104 bytes).
    Removing servo.o(i.EnableTorque), (20 bytes).
    Removing servo.o(i.ReadServo_Position), (18 bytes).
    Removing servo.o(i.SYNC_Write_Buff), (108 bytes).
    Removing servo.o(i.Servo_Lock), (18 bytes).
    Removing servo.o(i.Set_Servo_ID), (18 bytes).
    Removing servo.o(i.Split_Number), (8 bytes).
    Removing servo.o(i.Write_Buff), (124 bytes).
    Removing servo.o(i.Write_Position), (196 bytes).
    Removing servo.o(.data), (77 bytes).
    Removing gps.o(.rev16_text), (4 bytes).
    Removing gps.o(.revsh_text), (4 bytes).
    Removing gps.o(.rrx_text), (6 bytes).
    Removing bsp.o(.rev16_text), (4 bytes).
    Removing bsp.o(.revsh_text), (4 bytes).
    Removing bsp.o(.rrx_text), (6 bytes).
    Removing bsp.o(i.CPU_TS32_to_uSec), (60 bytes).
    Removing cpu_c.o(i.CPU_BitBandClr), (68 bytes).
    Removing cpu_c.o(i.CPU_BitBandSet), (68 bytes).
    Removing cpu_c.o(i.CPU_IntSrcDis), (376 bytes).
    Removing cpu_c.o(i.CPU_IntSrcEn), (376 bytes).
    Removing cpu_c.o(i.CPU_IntSrcPendClr), (172 bytes).
    Removing cpu_c.o(i.CPU_IntSrcPrioGet), (520 bytes).
    Removing cpu_c.o(i.CPU_IntSrcPrioSet), (564 bytes).
    Removing cpu_core.o(i.CPU_CntLeadZeros08), (18 bytes).
    Removing cpu_core.o(i.CPU_CntLeadZeros16), (18 bytes).
    Removing cpu_core.o(i.CPU_CntLeadZeros32), (18 bytes).
    Removing cpu_core.o(i.CPU_CntLeadZeros64), (192 bytes).
    Removing cpu_core.o(i.CPU_CntTrailZeros08), (22 bytes).
    Removing cpu_core.o(i.CPU_CntTrailZeros16), (22 bytes).
    Removing cpu_core.o(i.CPU_CntTrailZeros32), (22 bytes).
    Removing cpu_core.o(i.CPU_CntTrailZeros64), (62 bytes).
    Removing cpu_core.o(i.CPU_NameGet), (84 bytes).
    Removing cpu_core.o(i.CPU_NameSet), (108 bytes).
    Removing cpu_core.o(i.CPU_PopCnt32), (56 bytes).
    Removing cpu_core.o(i.CPU_SW_Exception), (4 bytes).
    Removing cpu_core.o(i.CPU_TS_Get32), (12 bytes).
    Removing cpu_core.o(i.CPU_TS_TmrFreqGet), (36 bytes).
    Removing cpu_core.o(i.CPU_TS_Update), (2 bytes).
    Removing cpu_core.o(.constdata), (260 bytes).
    Removing lib_str.o(i.Str_Cat), (24 bytes).
    Removing lib_str.o(i.Str_Cat_N), (90 bytes).
    Removing lib_str.o(i.Str_Char), (24 bytes).
    Removing lib_str.o(i.Str_Char_Last), (24 bytes).
    Removing lib_str.o(i.Str_Char_Last_N), (76 bytes).
    Removing lib_str.o(i.Str_Char_N), (74 bytes).
    Removing lib_str.o(i.Str_Char_Replace), (28 bytes).
    Removing lib_str.o(i.Str_Char_Replace_N), (52 bytes).
    Removing lib_str.o(i.Str_Cmp), (24 bytes).
    Removing lib_str.o(i.Str_CmpIgnoreCase), (24 bytes).
    Removing lib_str.o(i.Str_CmpIgnoreCase_N), (264 bytes).
    Removing lib_str.o(i.Str_Cmp_N), (156 bytes).
    Removing lib_str.o(i.Str_Copy), (24 bytes).
    Removing lib_str.o(i.Str_Copy_N), (70 bytes).
    Removing lib_str.o(i.Str_FmtNbr_Int32), (474 bytes).
    Removing lib_str.o(i.Str_FmtNbr_Int32S), (62 bytes).
    Removing lib_str.o(i.Str_FmtNbr_Int32U), (46 bytes).
    Removing lib_str.o(i.Str_Len), (20 bytes).
    Removing lib_str.o(i.Str_Len_N), (28 bytes).
    Removing lib_str.o(i.Str_ParseNbr_Int32), (452 bytes).
    Removing lib_str.o(i.Str_ParseNbr_Int32S), (74 bytes).
    Removing lib_str.o(i.Str_ParseNbr_Int32U), (30 bytes).
    Removing lib_str.o(i.Str_Str), (24 bytes).
    Removing lib_str.o(i.Str_Str_N), (182 bytes).
    Removing lib_str.o(.constdata), (148 bytes).
    Removing lib_ascii.o(i.ASCII_Cmp), (38 bytes).
    Removing lib_ascii.o(i.ASCII_IsAlpha), (48 bytes).
    Removing lib_ascii.o(i.ASCII_IsAlphaNum), (76 bytes).
    Removing lib_ascii.o(i.ASCII_IsBlank), (20 bytes).
    Removing lib_ascii.o(i.ASCII_IsCtrl), (26 bytes).
    Removing lib_ascii.o(i.ASCII_IsDig), (20 bytes).
    Removing lib_ascii.o(i.ASCII_IsDigHex), (36 bytes).
    Removing lib_ascii.o(i.ASCII_IsDigOct), (20 bytes).
    Removing lib_ascii.o(i.ASCII_IsGraph), (20 bytes).
    Removing lib_ascii.o(i.ASCII_IsLower), (20 bytes).
    Removing lib_ascii.o(i.ASCII_IsPrint), (20 bytes).
    Removing lib_ascii.o(i.ASCII_IsPunct), (134 bytes).
    Removing lib_ascii.o(i.ASCII_IsSpace), (36 bytes).
    Removing lib_ascii.o(i.ASCII_IsUpper), (20 bytes).
    Removing lib_ascii.o(i.ASCII_ToLower), (32 bytes).
    Removing lib_ascii.o(i.ASCII_ToUpper), (32 bytes).
    Removing lib_math.o(i.Math_Init), (10 bytes).
    Removing lib_math.o(i.Math_Rand), (64 bytes).
    Removing lib_math.o(i.Math_RandSeed), (24 bytes).
    Removing lib_math.o(i.Math_RandSetSeed), (52 bytes).
    Removing lib_math.o(.data), (4 bytes).
    Removing lib_mem.o(i.Mem_Cmp), (192 bytes).
    Removing lib_mem.o(i.Mem_DynPoolBlkFree), (142 bytes).
    Removing lib_mem.o(i.Mem_DynPoolBlkGet), (210 bytes).
    Removing lib_mem.o(i.Mem_DynPoolBlkNbrAvailGet), (78 bytes).
    Removing lib_mem.o(i.Mem_DynPoolCreate), (64 bytes).
    Removing lib_mem.o(i.Mem_DynPoolCreateHW), (64 bytes).
    Removing lib_mem.o(i.Mem_DynPoolCreateInternal), (210 bytes).
    Removing lib_mem.o(i.Mem_HeapAlloc), (60 bytes).
    Removing lib_mem.o(i.Mem_HeapGetSizeRem), (44 bytes).
    Removing lib_mem.o(i.Mem_Init), (72 bytes).
    Removing lib_mem.o(i.Mem_Move), (186 bytes).
    Removing lib_mem.o(i.Mem_PoolBlkFree), (108 bytes).
    Removing lib_mem.o(i.Mem_PoolBlkGet), (100 bytes).
    Removing lib_mem.o(i.Mem_PoolBlkGetNbrAvail), (60 bytes).
    Removing lib_mem.o(i.Mem_PoolClr), (22 bytes).
    Removing lib_mem.o(i.Mem_PoolCreate), (440 bytes).
    Removing lib_mem.o(i.Mem_SegAlloc), (52 bytes).
    Removing lib_mem.o(i.Mem_SegAllocExt), (52 bytes).
    Removing lib_mem.o(i.Mem_SegAllocExtCritical), (164 bytes).
    Removing lib_mem.o(i.Mem_SegAllocHW), (52 bytes).
    Removing lib_mem.o(i.Mem_SegAllocInternal), (112 bytes).
    Removing lib_mem.o(i.Mem_SegClr), (56 bytes).
    Removing lib_mem.o(i.Mem_SegCreate), (82 bytes).
    Removing lib_mem.o(i.Mem_SegCreateCritical), (32 bytes).
    Removing lib_mem.o(i.Mem_SegOverlapChkCritical), (88 bytes).
    Removing lib_mem.o(i.Mem_SegRemSizeGet), (132 bytes).
    Removing lib_mem.o(.bss), (1044 bytes).
    Removing lib_mem.o(.data), (4 bytes).
    Removing lib_mem_a.o(.text), (544 bytes).
    Removing os_core.o(i.OSVersion), (12 bytes).
    Removing os_core.o(i.OS_PendAbort), (188 bytes).
    Removing os_core.o(i.OS_PendAbort1), (38 bytes).
    Removing os_core.o(i.OS_PendListInsertHead), (32 bytes).
    Removing os_core.o(i.OS_PendObjDel), (184 bytes).
    Removing os_core.o(i.OS_PendObjDel1), (38 bytes).
    Removing os_core.o(i.OS_RdyListMoveHeadToTail), (68 bytes).
    Removing os_flag.o(i.OSFlagCreate), (104 bytes).
    Removing os_flag.o(i.OSFlagPend), (776 bytes).
    Removing os_flag.o(i.OSFlagPendGetFlagsRdy), (64 bytes).
    Removing os_flag.o(i.OSFlagPost), (64 bytes).
    Removing os_flag.o(i.OS_FlagBlock), (60 bytes).
    Removing os_flag.o(i.OS_FlagClr), (40 bytes).
    Removing os_flag.o(i.OS_FlagDbgListAdd), (48 bytes).
    Removing os_flag.o(i.OS_FlagDbgListRemove), (48 bytes).
    Removing os_flag.o(i.OS_FlagPost), (372 bytes).
    Removing os_flag.o(i.OS_FlagTaskRdy), (100 bytes).
    Removing os_mem.o(i.OSMemCreate), (156 bytes).
    Removing os_mem.o(i.OSMemGet), (100 bytes).
    Removing os_mem.o(i.OSMemPut), (104 bytes).
    Removing os_mem.o(i.OS_MemDbgListAdd), (40 bytes).
    Removing os_msg.o(i.OS_MsgQGet), (104 bytes).
    Removing os_msg.o(i.OS_MsgQPut), (260 bytes).
    Removing os_mutex.o(i.OS_MutexClr), (48 bytes).
    Removing os_mutex.o(i.OS_MutexDbgListRemove), (48 bytes).
    Removing os_pend_multi.o(i.OSPendMulti), (328 bytes).
    Removing os_pend_multi.o(i.OS_PendMultiGetRdy), (148 bytes).
    Removing os_pend_multi.o(i.OS_PendMultiValidate), (76 bytes).
    Removing os_pend_multi.o(i.OS_PendMultiWait), (140 bytes).
    Removing os_q.o(i.OSQCreate), (108 bytes).
    Removing os_q.o(i.OSQDel), (276 bytes).
    Removing os_q.o(i.OSQFlush), (88 bytes).
    Removing os_q.o(i.OSQPend), (416 bytes).
    Removing os_q.o(i.OSQPendAbort), (180 bytes).
    Removing os_q.o(i.OSQPost), (64 bytes).
    Removing os_q.o(i.OS_QClr), (48 bytes).
    Removing os_q.o(i.OS_QDbgListAdd), (48 bytes).
    Removing os_q.o(i.OS_QDbgListRemove), (48 bytes).
    Removing os_q.o(i.OS_QPost), (202 bytes).
    Removing os_sem.o(i.OSSemDel), (276 bytes).
    Removing os_sem.o(i.OSSemPendAbort), (180 bytes).
    Removing os_sem.o(i.OSSemSet), (108 bytes).
    Removing os_sem.o(i.OS_SemClr), (40 bytes).
    Removing os_sem.o(i.OS_SemDbgListRemove), (48 bytes).
    Removing os_task.o(i.OSTaskChangePrio), (160 bytes).
    Removing os_task.o(i.OSTaskQFlush), (112 bytes).
    Removing os_task.o(i.OSTaskQPend), (440 bytes).
    Removing os_task.o(i.OSTaskQPendAbort), (120 bytes).
    Removing os_task.o(i.OSTaskQPost), (42 bytes).
    Removing os_task.o(i.OSTaskRegGet), (80 bytes).
    Removing os_task.o(i.OSTaskRegGetID), (100 bytes).
    Removing os_task.o(i.OSTaskRegSet), (80 bytes).
    Removing os_task.o(i.OSTaskSemPendAbort), (200 bytes).
    Removing os_task.o(i.OSTaskSemSet), (76 bytes).
    Removing os_task.o(i.OS_TaskQPost), (244 bytes).
    Removing os_time.o(i.OSTimeGet), (60 bytes).
    Removing os_time.o(i.OSTimeSet), (60 bytes).
    Removing os_tmr.o(i.OSTmrCreate), (120 bytes).
    Removing os_tmr.o(i.OSTmrRemainGet), (124 bytes).
    Removing os_tmr.o(i.OSTmrSet), (68 bytes).
    Removing os_tmr.o(i.OSTmrStart), (192 bytes).
    Removing os_tmr.o(i.OSTmrStateGet), (84 bytes).
    Removing os_tmr.o(i.OSTmrStop), (196 bytes).
    Removing os_tmr.o(i.OS_TmrClr), (48 bytes).
    Removing os_tmr.o(i.OS_TmrDbgListAdd), (40 bytes).
    Removing os_tmr.o(i.OS_TmrDbgListRemove), (48 bytes).
    Removing os_cpu_c.o(i.OS_CPU_SysTickHandler), (64 bytes).
    Removing os_cpu_c.o(i.OS_CPU_SysTickInit), (48 bytes).
    Removing os_app_hooks.o(.rev16_text), (4 bytes).
    Removing os_app_hooks.o(.revsh_text), (4 bytes).
    Removing os_app_hooks.o(.rrx_text), (6 bytes).
    Removing os_app_hooks.o(i.App_OS_ClrAllHooks), (100 bytes).
    Removing os_app_hooks.o(i.App_OS_IdleTaskHook), (2 bytes).
    Removing os_app_hooks.o(i.App_OS_InitHook), (2 bytes).
    Removing os_app_hooks.o(i.App_OS_SetAllHooks), (140 bytes).
    Removing os_app_hooks.o(i.App_OS_StatTaskHook), (2 bytes).
    Removing os_app_hooks.o(i.App_OS_TaskCreateHook), (2 bytes).
    Removing os_app_hooks.o(i.App_OS_TaskDelHook), (2 bytes).
    Removing os_app_hooks.o(i.App_OS_TaskReturnHook), (2 bytes).
    Removing os_app_hooks.o(i.App_OS_TaskSwHook), (2 bytes).
    Removing os_app_hooks.o(i.App_OS_TimeTickHook), (2 bytes).

578 unused section(s) (total 49214 bytes) removed from the image.

==============================================================================

Image Symbol Table

    Local Symbols

    Symbol Name                              Value     Ov Type        Size  Object(Section)

    ../clib/angel/boardlib.s                 0x00000000   Number         0  boardshut.o ABSOLUTE
    ../clib/angel/boardlib.s                 0x00000000   Number         0  boardinit3.o ABSOLUTE
    ../clib/angel/boardlib.s                 0x00000000   Number         0  boardinit2.o ABSOLUTE
    ../clib/angel/boardlib.s                 0x00000000   Number         0  boardinit1.o ABSOLUTE
    ../clib/angel/handlers.s                 0x00000000   Number         0  __scatter_zi.o ABSOLUTE
    ../clib/angel/handlers.s                 0x00000000   Number         0  __scatter_copy.o ABSOLUTE
    ../clib/angel/kernel.s                   0x00000000   Number         0  __rtentry4.o ABSOLUTE
    ../clib/angel/kernel.s                   0x00000000   Number         0  rtexit2.o ABSOLUTE
    ../clib/angel/kernel.s                   0x00000000   Number         0  __rtentry.o ABSOLUTE
    ../clib/angel/kernel.s                   0x00000000   Number         0  __rtentry2.o ABSOLUTE
    ../clib/angel/kernel.s                   0x00000000   Number         0  rtexit.o ABSOLUTE
    ../clib/angel/rt.s                       0x00000000   Number         0  rt_locale_intlibspace.o ABSOLUTE
    ../clib/angel/rt.s                       0x00000000   Number         0  rt_ctype_table.o ABSOLUTE
    ../clib/angel/rt.s                       0x00000000   Number         0  rt_div0.o ABSOLUTE
    ../clib/angel/rt.s                       0x00000000   Number         0  rt_errno_addr_intlibspace.o ABSOLUTE
    ../clib/angel/rt.s                       0x00000000   Number         0  rt_errno_addr.o ABSOLUTE
    ../clib/angel/rt.s                       0x00000000   Number         0  aeabi_ldiv0_sigfpe.o ABSOLUTE
    ../clib/angel/rt.s                       0x00000000   Number         0  aeabi_ldiv0.o ABSOLUTE
    ../clib/angel/rt.s                       0x00000000   Number         0  rt_raise.o ABSOLUTE
    ../clib/angel/rt.s                       0x00000000   Number         0  rt_locale.o ABSOLUTE
    ../clib/angel/scatter.s                  0x00000000   Number         0  __scatter.o ABSOLUTE
    ../clib/angel/startup.s                  0x00000000   Number         0  __main.o ABSOLUTE
    ../clib/angel/sys.s                      0x00000000   Number         0  indicate_semi.o ABSOLUTE
    ../clib/angel/sys.s                      0x00000000   Number         0  sys_stackheap_outer.o ABSOLUTE
    ../clib/angel/sys.s                      0x00000000   Number         0  libspace.o ABSOLUTE
    ../clib/angel/sys.s                      0x00000000   Number         0  use_no_semi_2.o ABSOLUTE
    ../clib/angel/sys.s                      0x00000000   Number         0  use_no_semi.o ABSOLUTE
    ../clib/angel/sysapp.c                   0x00000000   Number         0  sys_wrch.o ABSOLUTE
    ../clib/angel/sysapp.c                   0x00000000   Number         0  sys_command.o ABSOLUTE
    ../clib/armsys.c                         0x00000000   Number         0  argv_veneer.o ABSOLUTE
    ../clib/armsys.c                         0x00000000   Number         0  no_argv.o ABSOLUTE
    ../clib/armsys.c                         0x00000000   Number         0  argv_veneer.o ABSOLUTE
    ../clib/armsys.c                         0x00000000   Number         0  _get_argv_nomalloc.o ABSOLUTE
    ../clib/heapalloc.c                      0x00000000   Number         0  hrguard.o ABSOLUTE
    ../clib/heapaux.c                        0x00000000   Number         0  heapauxi.o ABSOLUTE
    ../clib/libinit.s                        0x00000000   Number         0  libshutdown2.o ABSOLUTE
    ../clib/libinit.s                        0x00000000   Number         0  libshutdown.o ABSOLUTE
    ../clib/libinit.s                        0x00000000   Number         0  libinit2.o ABSOLUTE
    ../clib/libinit.s                        0x00000000   Number         0  libinit.o ABSOLUTE
    ../clib/locale.s                         0x00000000   Number         0  lc_ctype_c.o ABSOLUTE
    ../clib/longlong.s                       0x00000000   Number         0  lludivv7m.o ABSOLUTE
    ../clib/memcpset.s                       0x00000000   Number         0  strcmpv7m_pel.o ABSOLUTE
    ../clib/memcpset.s                       0x00000000   Number         0  rt_memcpy_w.o ABSOLUTE
    ../clib/scanf.c                          0x00000000   Number         0  _chval.o ABSOLUTE
    ../clib/scanf.c                          0x00000000   Number         0  _strtoul.o ABSOLUTE
    ../clib/scanf.c                          0x00000000   Number         0  strtol.o ABSOLUTE
    ../clib/scanf.c                          0x00000000   Number         0  atoi.o ABSOLUTE
    ../clib/signal.c                         0x00000000   Number         0  defsig_rtred_inner.o ABSOLUTE
    ../clib/signal.c                         0x00000000   Number         0  defsig_rtmem_inner.o ABSOLUTE
    ../clib/signal.c                         0x00000000   Number         0  defsig_rtmem_formal.o ABSOLUTE
    ../clib/signal.c                         0x00000000   Number         0  defsig_stak_inner.o ABSOLUTE
    ../clib/signal.c                         0x00000000   Number         0  defsig_pvfn_inner.o ABSOLUTE
    ../clib/signal.c                         0x00000000   Number         0  defsig_segv_inner.o ABSOLUTE
    ../clib/signal.c                         0x00000000   Number         0  defsig_other.o ABSOLUTE
    ../clib/signal.c                         0x00000000   Number         0  defsig_cppl_inner.o ABSOLUTE
    ../clib/signal.c                         0x00000000   Number         0  defsig_fpe_outer.o ABSOLUTE
    ../clib/signal.c                         0x00000000   Number         0  defsig_fpe_formal.o ABSOLUTE
    ../clib/signal.c                         0x00000000   Number         0  defsig_exit.o ABSOLUTE
    ../clib/signal.c                         0x00000000   Number         0  defsig_fpe_inner.o ABSOLUTE
    ../clib/signal.c                         0x00000000   Number         0  defsig_rtmem_outer.o ABSOLUTE
    ../clib/signal.c                         0x00000000   Number         0  defsig_general.o ABSOLUTE
    ../clib/signal.c                         0x00000000   Number         0  __raise.o ABSOLUTE
    ../clib/signal.c                         0x00000000   Number         0  defsig_abrt_inner.o ABSOLUTE
    ../clib/signal.s                         0x00000000   Number         0  defsig.o ABSOLUTE
    ../clib/stdlib.c                         0x00000000   Number         0  exit.o ABSOLUTE
    ../fplib/fpinit.s                        0x00000000   Number         0  fpinit.o ABSOLUTE
    ..\CORE\startup_stm32f767xx.s            0x00000000   Number         0  startup_stm32f767xx.o ABSOLUTE
    ..\HALLIB\STM32F7xx_HAL_Driver\Src\stm32f7xx_hal.c 0x00000000   Number         0  stm32f7xx_hal.o ABSOLUTE
    ..\HALLIB\STM32F7xx_HAL_Driver\Src\stm32f7xx_hal_cortex.c 0x00000000   Number         0  stm32f7xx_hal_cortex.o ABSOLUTE
    ..\HALLIB\STM32F7xx_HAL_Driver\Src\stm32f7xx_hal_dma.c 0x00000000   Number         0  stm32f7xx_hal_dma.o ABSOLUTE
    ..\HALLIB\STM32F7xx_HAL_Driver\Src\stm32f7xx_hal_dma_ex.c 0x00000000   Number         0  stm32f7xx_hal_dma_ex.o ABSOLUTE
    ..\HALLIB\STM32F7xx_HAL_Driver\Src\stm32f7xx_hal_gpio.c 0x00000000   Number         0  stm32f7xx_hal_gpio.o ABSOLUTE
    ..\HALLIB\STM32F7xx_HAL_Driver\Src\stm32f7xx_hal_ltdc.c 0x00000000   Number         0  stm32f7xx_hal_ltdc.o ABSOLUTE
    ..\HALLIB\STM32F7xx_HAL_Driver\Src\stm32f7xx_hal_ltdc_ex.c 0x00000000   Number         0  stm32f7xx_hal_ltdc_ex.o ABSOLUTE
    ..\HALLIB\STM32F7xx_HAL_Driver\Src\stm32f7xx_hal_pwr.c 0x00000000   Number         0  stm32f7xx_hal_pwr.o ABSOLUTE
    ..\HALLIB\STM32F7xx_HAL_Driver\Src\stm32f7xx_hal_pwr_ex.c 0x00000000   Number         0  stm32f7xx_hal_pwr_ex.o ABSOLUTE
    ..\HALLIB\STM32F7xx_HAL_Driver\Src\stm32f7xx_hal_rcc.c 0x00000000   Number         0  stm32f7xx_hal_rcc.o ABSOLUTE
    ..\HALLIB\STM32F7xx_HAL_Driver\Src\stm32f7xx_hal_rcc_ex.c 0x00000000   Number         0  stm32f7xx_hal_rcc_ex.o ABSOLUTE
    ..\HALLIB\STM32F7xx_HAL_Driver\Src\stm32f7xx_hal_sdram.c 0x00000000   Number         0  stm32f7xx_hal_sdram.o ABSOLUTE
    ..\HALLIB\STM32F7xx_HAL_Driver\Src\stm32f7xx_hal_sram.c 0x00000000   Number         0  stm32f7xx_hal_sram.o ABSOLUTE
    ..\HALLIB\STM32F7xx_HAL_Driver\Src\stm32f7xx_hal_uart.c 0x00000000   Number         0  stm32f7xx_hal_uart.o ABSOLUTE
    ..\HALLIB\STM32F7xx_HAL_Driver\Src\stm32f7xx_hal_usart.c 0x00000000   Number         0  stm32f7xx_hal_usart.o ABSOLUTE
    ..\HALLIB\STM32F7xx_HAL_Driver\Src\stm32f7xx_ll_fmc.c 0x00000000   Number         0  stm32f7xx_ll_fmc.o ABSOLUTE
    ..\HARDWARE\DMA\dma.c                    0x00000000   Number         0  dma.o ABSOLUTE
    ..\HARDWARE\GPS\gps.c                    0x00000000   Number         0  gps.o ABSOLUTE
    ..\HARDWARE\KEY\key.c                    0x00000000   Number         0  key.o ABSOLUTE
    ..\HARDWARE\LCD\lcd.c                    0x00000000   Number         0  lcd.o ABSOLUTE
    ..\HARDWARE\LCD\ltdc.c                   0x00000000   Number         0  ltdc.o ABSOLUTE
    ..\HARDWARE\LED\led.c                    0x00000000   Number         0  led.o ABSOLUTE
    ..\HARDWARE\SDRAM\sdram.c                0x00000000   Number         0  sdram.o ABSOLUTE
    ..\HARDWARE\SERVO\servo.c                0x00000000   Number         0  servo.o ABSOLUTE
    ..\SYSTEM\delay\delay.c                  0x00000000   Number         0  delay.o ABSOLUTE
    ..\SYSTEM\sys\sys.c                      0x00000000   Number         0  sys.o ABSOLUTE
    ..\SYSTEM\usart\usart.c                  0x00000000   Number         0  usart.o ABSOLUTE
    ..\UCOSIII\UCOS-BSP\bsp.c                0x00000000   Number         0  bsp.o ABSOLUTE
    ..\UCOSIII\UCOS-CONFIG\os_app_hooks.c    0x00000000   Number         0  os_app_hooks.o ABSOLUTE
    ..\UCOSIII\uC-CPU\ARM-Cortex-M4\RealView\cpu_a.asm 0x00000000   Number         0  cpu_a.o ABSOLUTE
    ..\UCOSIII\uC-CPU\ARM-Cortex-M4\RealView\cpu_c.c 0x00000000   Number         0  cpu_c.o ABSOLUTE
    ..\UCOSIII\uC-CPU\cpu_core.c             0x00000000   Number         0  cpu_core.o ABSOLUTE
    ..\UCOSIII\uC-LIB\Ports\ARM-Cortex-M4\RealView\lib_mem_a.asm 0x00000000   Number         0  lib_mem_a.o ABSOLUTE
    ..\UCOSIII\uC-LIB\lib_ascii.c            0x00000000   Number         0  lib_ascii.o ABSOLUTE
    ..\UCOSIII\uC-LIB\lib_math.c             0x00000000   Number         0  lib_math.o ABSOLUTE
    ..\UCOSIII\uC-LIB\lib_mem.c              0x00000000   Number         0  lib_mem.o ABSOLUTE
    ..\UCOSIII\uC-LIB\lib_str.c              0x00000000   Number         0  lib_str.o ABSOLUTE
    ..\UCOSIII\uCOS-III\Ports\ARM-Cortex-M4\Generic\RealView\os_cpu_a.asm 0x00000000   Number         0  os_cpu_a.o ABSOLUTE
    ..\UCOSIII\uCOS-III\Ports\ARM-Cortex-M4\Generic\RealView\os_cpu_c.c 0x00000000   Number         0  os_cpu_c.o ABSOLUTE
    ..\UCOSIII\uCOS-III\Source\os_cfg_app.c  0x00000000   Number         0  os_cfg_app.o ABSOLUTE
    ..\UCOSIII\uCOS-III\Source\os_core.c     0x00000000   Number         0  os_core.o ABSOLUTE
    ..\UCOSIII\uCOS-III\Source\os_dbg.c      0x00000000   Number         0  os_dbg.o ABSOLUTE
    ..\UCOSIII\uCOS-III\Source\os_flag.c     0x00000000   Number         0  os_flag.o ABSOLUTE
    ..\UCOSIII\uCOS-III\Source\os_int.c      0x00000000   Number         0  os_int.o ABSOLUTE
    ..\UCOSIII\uCOS-III\Source\os_mem.c      0x00000000   Number         0  os_mem.o ABSOLUTE
    ..\UCOSIII\uCOS-III\Source\os_msg.c      0x00000000   Number         0  os_msg.o ABSOLUTE
    ..\UCOSIII\uCOS-III\Source\os_mutex.c    0x00000000   Number         0  os_mutex.o ABSOLUTE
    ..\UCOSIII\uCOS-III\Source\os_pend_multi.c 0x00000000   Number         0  os_pend_multi.o ABSOLUTE
    ..\UCOSIII\uCOS-III\Source\os_prio.c     0x00000000   Number         0  os_prio.o ABSOLUTE
    ..\UCOSIII\uCOS-III\Source\os_q.c        0x00000000   Number         0  os_q.o ABSOLUTE
    ..\UCOSIII\uCOS-III\Source\os_sem.c      0x00000000   Number         0  os_sem.o ABSOLUTE
    ..\UCOSIII\uCOS-III\Source\os_stat.c     0x00000000   Number         0  os_stat.o ABSOLUTE
    ..\UCOSIII\uCOS-III\Source\os_task.c     0x00000000   Number         0  os_task.o ABSOLUTE
    ..\UCOSIII\uCOS-III\Source\os_tick.c     0x00000000   Number         0  os_tick.o ABSOLUTE
    ..\UCOSIII\uCOS-III\Source\os_time.c     0x00000000   Number         0  os_time.o ABSOLUTE
    ..\UCOSIII\uCOS-III\Source\os_tmr.c      0x00000000   Number         0  os_tmr.o ABSOLUTE
    ..\UCOSIII\uCOS-III\Source\os_var.c      0x00000000   Number         0  os_var.o ABSOLUTE
    ..\\HALLIB\\STM32F7xx_HAL_Driver\\Src\\stm32f7xx_hal.c 0x00000000   Number         0  stm32f7xx_hal.o ABSOLUTE
    ..\\HALLIB\\STM32F7xx_HAL_Driver\\Src\\stm32f7xx_hal_cortex.c 0x00000000   Number         0  stm32f7xx_hal_cortex.o ABSOLUTE
    ..\\HALLIB\\STM32F7xx_HAL_Driver\\Src\\stm32f7xx_hal_dma.c 0x00000000   Number         0  stm32f7xx_hal_dma.o ABSOLUTE
    ..\\HALLIB\\STM32F7xx_HAL_Driver\\Src\\stm32f7xx_hal_dma_ex.c 0x00000000   Number         0  stm32f7xx_hal_dma_ex.o ABSOLUTE
    ..\\HALLIB\\STM32F7xx_HAL_Driver\\Src\\stm32f7xx_hal_gpio.c 0x00000000   Number         0  stm32f7xx_hal_gpio.o ABSOLUTE
    ..\\HALLIB\\STM32F7xx_HAL_Driver\\Src\\stm32f7xx_hal_ltdc.c 0x00000000   Number         0  stm32f7xx_hal_ltdc.o ABSOLUTE
    ..\\HALLIB\\STM32F7xx_HAL_Driver\\Src\\stm32f7xx_hal_ltdc_ex.c 0x00000000   Number         0  stm32f7xx_hal_ltdc_ex.o ABSOLUTE
    ..\\HALLIB\\STM32F7xx_HAL_Driver\\Src\\stm32f7xx_hal_pwr.c 0x00000000   Number         0  stm32f7xx_hal_pwr.o ABSOLUTE
    ..\\HALLIB\\STM32F7xx_HAL_Driver\\Src\\stm32f7xx_hal_pwr_ex.c 0x00000000   Number         0  stm32f7xx_hal_pwr_ex.o ABSOLUTE
    ..\\HALLIB\\STM32F7xx_HAL_Driver\\Src\\stm32f7xx_hal_rcc.c 0x00000000   Number         0  stm32f7xx_hal_rcc.o ABSOLUTE
    ..\\HALLIB\\STM32F7xx_HAL_Driver\\Src\\stm32f7xx_hal_rcc_ex.c 0x00000000   Number         0  stm32f7xx_hal_rcc_ex.o ABSOLUTE
    ..\\HALLIB\\STM32F7xx_HAL_Driver\\Src\\stm32f7xx_hal_sdram.c 0x00000000   Number         0  stm32f7xx_hal_sdram.o ABSOLUTE
    ..\\HALLIB\\STM32F7xx_HAL_Driver\\Src\\stm32f7xx_hal_sram.c 0x00000000   Number         0  stm32f7xx_hal_sram.o ABSOLUTE
    ..\\HALLIB\\STM32F7xx_HAL_Driver\\Src\\stm32f7xx_hal_uart.c 0x00000000   Number         0  stm32f7xx_hal_uart.o ABSOLUTE
    ..\\HALLIB\\STM32F7xx_HAL_Driver\\Src\\stm32f7xx_hal_usart.c 0x00000000   Number         0  stm32f7xx_hal_usart.o ABSOLUTE
    ..\\HALLIB\\STM32F7xx_HAL_Driver\\Src\\stm32f7xx_ll_fmc.c 0x00000000   Number         0  stm32f7xx_ll_fmc.o ABSOLUTE
    ..\\HARDWARE\\DMA\\dma.c                 0x00000000   Number         0  dma.o ABSOLUTE
    ..\\HARDWARE\\GPS\\gps.c                 0x00000000   Number         0  gps.o ABSOLUTE
    ..\\HARDWARE\\KEY\\key.c                 0x00000000   Number         0  key.o ABSOLUTE
    ..\\HARDWARE\\LCD\\lcd.c                 0x00000000   Number         0  lcd.o ABSOLUTE
    ..\\HARDWARE\\LCD\\ltdc.c                0x00000000   Number         0  ltdc.o ABSOLUTE
    ..\\HARDWARE\\LED\\led.c                 0x00000000   Number         0  led.o ABSOLUTE
    ..\\HARDWARE\\SDRAM\\sdram.c             0x00000000   Number         0  sdram.o ABSOLUTE
    ..\\HARDWARE\\SERVO\\servo.c             0x00000000   Number         0  servo.o ABSOLUTE
    ..\\SYSTEM\\delay\\delay.c               0x00000000   Number         0  delay.o ABSOLUTE
    ..\\SYSTEM\\sys\\sys.c                   0x00000000   Number         0  sys.o ABSOLUTE
    ..\\SYSTEM\\usart\\usart.c               0x00000000   Number         0  usart.o ABSOLUTE
    ..\\UCOSIII\\UCOS-BSP\\bsp.c             0x00000000   Number         0  bsp.o ABSOLUTE
    ..\\UCOSIII\\UCOS-CONFIG\\os_app_hooks.c 0x00000000   Number         0  os_app_hooks.o ABSOLUTE
    dc.s                                     0x00000000   Number         0  dc.o ABSOLUTE
    main.c                                   0x00000000   Number         0  main.o ABSOLUTE
    main.c                                   0x00000000   Number         0  main.o ABSOLUTE
    stm32f7xx_it.c                           0x00000000   Number         0  stm32f7xx_it.o ABSOLUTE
    stm32f7xx_it.c                           0x00000000   Number         0  stm32f7xx_it.o ABSOLUTE
    system_stm32f7xx.c                       0x00000000   Number         0  system_stm32f7xx.o ABSOLUTE
    system_stm32f7xx.c                       0x00000000   Number         0  system_stm32f7xx.o ABSOLUTE
    RESET                                    0x08000000   Section      504  startup_stm32f767xx.o(RESET)
    !!!main                                  0x080001f8   Section        8  __main.o(!!!main)
    !!!scatter                               0x08000200   Section       52  __scatter.o(!!!scatter)
    !!handler_copy                           0x08000234   Section       26  __scatter_copy.o(!!handler_copy)
    !!handler_zi                             0x08000250   Section       28  __scatter_zi.o(!!handler_zi)
    .ARM.Collect$$libinit$$00000000          0x0800026c   Section        2  libinit.o(.ARM.Collect$$libinit$$00000000)
    .ARM.Collect$$libinit$$00000001          0x0800026e   Section        4  libinit2.o(.ARM.Collect$$libinit$$00000001)
    .ARM.Collect$$libinit$$00000004          0x08000272   Section        0  libinit2.o(.ARM.Collect$$libinit$$00000004)
    .ARM.Collect$$libinit$$0000000A          0x08000272   Section        0  libinit2.o(.ARM.Collect$$libinit$$0000000A)
    .ARM.Collect$$libinit$$0000000C          0x08000272   Section        0  libinit2.o(.ARM.Collect$$libinit$$0000000C)
    .ARM.Collect$$libinit$$0000000E          0x08000272   Section        0  libinit2.o(.ARM.Collect$$libinit$$0000000E)
    .ARM.Collect$$libinit$$0000000F          0x08000272   Section        6  libinit2.o(.ARM.Collect$$libinit$$0000000F)
    .ARM.Collect$$libinit$$00000011          0x08000278   Section        0  libinit2.o(.ARM.Collect$$libinit$$00000011)
    .ARM.Collect$$libinit$$00000012          0x08000278   Section       12  libinit2.o(.ARM.Collect$$libinit$$00000012)
    .ARM.Collect$$libinit$$00000013          0x08000284   Section        0  libinit2.o(.ARM.Collect$$libinit$$00000013)
    .ARM.Collect$$libinit$$00000015          0x08000284   Section        0  libinit2.o(.ARM.Collect$$libinit$$00000015)
    .ARM.Collect$$libinit$$00000017          0x08000284   Section        0  libinit2.o(.ARM.Collect$$libinit$$00000017)
    .ARM.Collect$$libinit$$00000019          0x08000284   Section        0  libinit2.o(.ARM.Collect$$libinit$$00000019)
    .ARM.Collect$$libinit$$0000001B          0x08000284   Section        0  libinit2.o(.ARM.Collect$$libinit$$0000001B)
    .ARM.Collect$$libinit$$0000001D          0x08000284   Section        0  libinit2.o(.ARM.Collect$$libinit$$0000001D)
    .ARM.Collect$$libinit$$0000001F          0x08000284   Section        0  libinit2.o(.ARM.Collect$$libinit$$0000001F)
    .ARM.Collect$$libinit$$00000021          0x08000284   Section        0  libinit2.o(.ARM.Collect$$libinit$$00000021)
    .ARM.Collect$$libinit$$00000023          0x08000284   Section        0  libinit2.o(.ARM.Collect$$libinit$$00000023)
    .ARM.Collect$$libinit$$00000025          0x08000284   Section        0  libinit2.o(.ARM.Collect$$libinit$$00000025)
    .ARM.Collect$$libinit$$0000002C          0x08000284   Section        0  libinit2.o(.ARM.Collect$$libinit$$0000002C)
    .ARM.Collect$$libinit$$0000002E          0x08000284   Section        0  libinit2.o(.ARM.Collect$$libinit$$0000002E)
    .ARM.Collect$$libinit$$00000030          0x08000284   Section        0  libinit2.o(.ARM.Collect$$libinit$$00000030)
    .ARM.Collect$$libinit$$00000032          0x08000284   Section        0  libinit2.o(.ARM.Collect$$libinit$$00000032)
    .ARM.Collect$$libinit$$00000033          0x08000284   Section        2  libinit2.o(.ARM.Collect$$libinit$$00000033)
    .ARM.Collect$$libshutdown$$00000000      0x08000286   Section        2  libshutdown.o(.ARM.Collect$$libshutdown$$00000000)
    .ARM.Collect$$libshutdown$$00000002      0x08000288   Section        0  libshutdown2.o(.ARM.Collect$$libshutdown$$00000002)
    .ARM.Collect$$libshutdown$$00000004      0x08000288   Section        0  libshutdown2.o(.ARM.Collect$$libshutdown$$00000004)
    .ARM.Collect$$libshutdown$$00000007      0x08000288   Section        0  libshutdown2.o(.ARM.Collect$$libshutdown$$00000007)
    .ARM.Collect$$libshutdown$$0000000A      0x08000288   Section        0  libshutdown2.o(.ARM.Collect$$libshutdown$$0000000A)
    .ARM.Collect$$libshutdown$$0000000C      0x08000288   Section        0  libshutdown2.o(.ARM.Collect$$libshutdown$$0000000C)
    .ARM.Collect$$libshutdown$$0000000F      0x08000288   Section        0  libshutdown2.o(.ARM.Collect$$libshutdown$$0000000F)
    .ARM.Collect$$libshutdown$$00000010      0x08000288   Section        2  libshutdown2.o(.ARM.Collect$$libshutdown$$00000010)
    .ARM.Collect$$rtentry$$00000000          0x0800028a   Section        0  __rtentry.o(.ARM.Collect$$rtentry$$00000000)
    .ARM.Collect$$rtentry$$00000002          0x0800028a   Section        0  __rtentry2.o(.ARM.Collect$$rtentry$$00000002)
    .ARM.Collect$$rtentry$$00000004          0x0800028a   Section        6  __rtentry4.o(.ARM.Collect$$rtentry$$00000004)
    .ARM.Collect$$rtentry$$00000009          0x08000290   Section        0  __rtentry2.o(.ARM.Collect$$rtentry$$00000009)
    .ARM.Collect$$rtentry$$0000000A          0x08000290   Section        4  __rtentry2.o(.ARM.Collect$$rtentry$$0000000A)
    .ARM.Collect$$rtentry$$0000000C          0x08000294   Section        0  __rtentry2.o(.ARM.Collect$$rtentry$$0000000C)
    .ARM.Collect$$rtentry$$0000000D          0x08000294   Section        8  __rtentry2.o(.ARM.Collect$$rtentry$$0000000D)
    .ARM.Collect$$rtexit$$00000000           0x0800029c   Section        2  rtexit.o(.ARM.Collect$$rtexit$$00000000)
    .ARM.Collect$$rtexit$$00000002           0x0800029e   Section        0  rtexit2.o(.ARM.Collect$$rtexit$$00000002)
    .ARM.Collect$$rtexit$$00000003           0x0800029e   Section        4  rtexit2.o(.ARM.Collect$$rtexit$$00000003)
    .ARM.Collect$$rtexit$$00000004           0x080002a2   Section        6  rtexit2.o(.ARM.Collect$$rtexit$$00000004)
    .text                                    0x080002a8   Section      104  startup_stm32f767xx.o(.text)
    $v0                                      0x080002a8   Number         0  startup_stm32f767xx.o(.text)
    .text                                    0x08000310   Section       52  cpu_a.o(.text)
    $v0                                      0x08000310   Number         0  cpu_a.o(.text)
    .text                                    0x08000344   Section        2  use_no_semi_2.o(.text)
    .text                                    0x08000346   Section        0  atoi.o(.text)
    .text                                    0x08000360   Section      100  rt_memcpy_w.o(.text)
    .text                                    0x080003c4   Section        0  heapauxi.o(.text)
    .text                                    0x080003ca   Section        2  use_no_semi.o(.text)
    .text                                    0x080003cc   Section        8  rt_errno_addr_intlibspace.o(.text)
    .text                                    0x080003d4   Section        0  strtol.o(.text)
    .text                                    0x08000444   Section        8  libspace.o(.text)
    .text                                    0x0800044c   Section       16  rt_ctype_table.o(.text)
    .text                                    0x0800045c   Section        0  _strtoul.o(.text)
    .text                                    0x080004fa   Section       74  sys_stackheap_outer.o(.text)
    .text                                    0x08000544   Section        8  rt_locale_intlibspace.o(.text)
    .text                                    0x0800054c   Section        0  _chval.o(.text)
    .text                                    0x08000568   Section        0  exit.o(.text)
    .text                                    0x0800057c   Section      104  strcmpv7m_pel.o(.text)
    CODE                                     0x080005e4   Section      280  os_cpu_a.o(CODE)
    $v0                                      0x080005e4   Number         0  os_cpu_a.o(CODE)
    i.BSP_CPU_ClkFreq                        0x080006fc   Section        0  bsp.o(i.BSP_CPU_ClkFreq)
    i.BusFault_Handler                       0x08000708   Section        0  stm32f7xx_it.o(i.BusFault_Handler)
    i.CPU_Init                               0x0800070c   Section        0  cpu_core.o(i.CPU_Init)
    i.CPU_IntDisMeasInit                     0x0800071c   Section        0  cpu_core.o(i.CPU_IntDisMeasInit)
    CPU_IntDisMeasInit                       0x0800071d   Thumb Code   104  cpu_core.o(i.CPU_IntDisMeasInit)
    i.CPU_IntDisMeasMaxCalc                  0x080007a0   Section        0  cpu_core.o(i.CPU_IntDisMeasMaxCalc)
    CPU_IntDisMeasMaxCalc                    0x080007a1   Thumb Code    24  cpu_core.o(i.CPU_IntDisMeasMaxCalc)
    i.CPU_IntDisMeasMaxCurGet                0x080007bc   Section        0  cpu_core.o(i.CPU_IntDisMeasMaxCurGet)
    i.CPU_IntDisMeasMaxCurReset              0x080007e8   Section        0  cpu_core.o(i.CPU_IntDisMeasMaxCurReset)
    i.CPU_IntDisMeasMaxGet                   0x08000814   Section        0  cpu_core.o(i.CPU_IntDisMeasMaxGet)
    i.CPU_IntDisMeasStart                    0x08000840   Section        0  cpu_core.o(i.CPU_IntDisMeasStart)
    i.CPU_IntDisMeasStop                     0x08000874   Section        0  cpu_core.o(i.CPU_IntDisMeasStop)
    i.CPU_NameClr                            0x080008c8   Section        0  cpu_core.o(i.CPU_NameClr)
    i.CPU_NameInit                           0x08000900   Section        0  cpu_core.o(i.CPU_NameInit)
    CPU_NameInit                             0x08000901   Thumb Code     8  cpu_core.o(i.CPU_NameInit)
    i.CPU_TS_Init                            0x08000908   Section        0  cpu_core.o(i.CPU_TS_Init)
    CPU_TS_Init                              0x08000909   Thumb Code    14  cpu_core.o(i.CPU_TS_Init)
    i.CPU_TS_TmrFreqSet                      0x0800091c   Section        0  cpu_core.o(i.CPU_TS_TmrFreqSet)
    i.CPU_TS_TmrInit                         0x08000928   Section        0  bsp.o(i.CPU_TS_TmrInit)
    i.CPU_TS_TmrRd                           0x0800095c   Section        0  bsp.o(i.CPU_TS_TmrRd)
    i.Cache_Enable                           0x08000968   Section        0  sys.o(i.Cache_Enable)
    i.DebugMon_Handler                       0x080009d0   Section        0  stm32f7xx_it.o(i.DebugMon_Handler)
    i.FMC_NORSRAM_Extended_Timing_Init       0x080009d4   Section        0  stm32f7xx_ll_fmc.o(i.FMC_NORSRAM_Extended_Timing_Init)
    i.FMC_NORSRAM_Init                       0x08000a1c   Section        0  stm32f7xx_ll_fmc.o(i.FMC_NORSRAM_Init)
    i.FMC_NORSRAM_Timing_Init                0x08000a9c   Section        0  stm32f7xx_ll_fmc.o(i.FMC_NORSRAM_Timing_Init)
    i.FMC_SDRAM_Init                         0x08000afa   Section        0  stm32f7xx_ll_fmc.o(i.FMC_SDRAM_Init)
    i.FMC_SDRAM_ProgramRefreshRate           0x08000b6e   Section        0  stm32f7xx_ll_fmc.o(i.FMC_SDRAM_ProgramRefreshRate)
    i.FMC_SDRAM_SendCommand                  0x08000b7c   Section        0  stm32f7xx_ll_fmc.o(i.FMC_SDRAM_SendCommand)
    i.FMC_SDRAM_Timing_Init                  0x08000bd0   Section        0  stm32f7xx_ll_fmc.o(i.FMC_SDRAM_Timing_Init)
    i.GPGGA_DAT                              0x08000c6c   Section        0  gps.o(i.GPGGA_DAT)
    i.GPGSA_DAT                              0x08000cd0   Section        0  gps.o(i.GPGSA_DAT)
    i.GPGSV_DAT                              0x08000d98   Section        0  gps.o(i.GPGSV_DAT)
    i.GPRMC_DAT                              0x08000fbc   Section        0  gps.o(i.GPRMC_DAT)
    i.GPS_task                               0x0800139c   Section        0  main.o(i.GPS_task)
    i.HAL_GPIO_Init                          0x080014f4   Section        0  stm32f7xx_hal_gpio.o(i.HAL_GPIO_Init)
    i.HAL_GPIO_ReadPin                       0x0800170c   Section        0  stm32f7xx_hal_gpio.o(i.HAL_GPIO_ReadPin)
    i.HAL_GPIO_TogglePin                     0x0800171c   Section        0  stm32f7xx_hal_gpio.o(i.HAL_GPIO_TogglePin)
    i.HAL_GPIO_WritePin                      0x08001724   Section        0  stm32f7xx_hal_gpio.o(i.HAL_GPIO_WritePin)
    i.HAL_GetTick                            0x08001730   Section        0  stm32f7xx_hal.o(i.HAL_GetTick)
    i.HAL_IncTick                            0x0800173c   Section        0  stm32f7xx_hal.o(i.HAL_IncTick)
    i.HAL_Init                               0x0800174c   Section        0  stm32f7xx_hal.o(i.HAL_Init)
    i.HAL_InitTick                           0x08001774   Section        0  stm32f7xx_hal.o(i.HAL_InitTick)
    i.HAL_LTDC_ConfigLayer                   0x0800179c   Section        0  stm32f7xx_hal_ltdc.o(i.HAL_LTDC_ConfigLayer)
    i.HAL_LTDC_Init                          0x080017fc   Section        0  stm32f7xx_hal_ltdc.o(i.HAL_LTDC_Init)
    i.HAL_LTDC_MspInit                       0x08001924   Section        0  ltdc.o(i.HAL_LTDC_MspInit)
    i.HAL_LTDC_SetWindowPosition             0x08001a64   Section        0  stm32f7xx_hal_ltdc.o(i.HAL_LTDC_SetWindowPosition)
    i.HAL_LTDC_SetWindowSize                 0x08001ad0   Section        0  stm32f7xx_hal_ltdc.o(i.HAL_LTDC_SetWindowSize)
    i.HAL_MPU_ConfigRegion                   0x08001b44   Section        0  stm32f7xx_hal_cortex.o(i.HAL_MPU_ConfigRegion)
    i.HAL_MspInit                            0x08001ba0   Section        0  stm32f7xx_hal.o(i.HAL_MspInit)
    i.HAL_NVIC_EnableIRQ                     0x08001ba2   Section        0  stm32f7xx_hal_cortex.o(i.HAL_NVIC_EnableIRQ)
    i.HAL_NVIC_SetPriority                   0x08001bbc   Section        0  stm32f7xx_hal_cortex.o(i.HAL_NVIC_SetPriority)
    i.HAL_NVIC_SetPriorityGrouping           0x08001c38   Section        0  stm32f7xx_hal_cortex.o(i.HAL_NVIC_SetPriorityGrouping)
    i.HAL_PWREx_EnableOverDrive              0x08001c60   Section        0  stm32f7xx_hal_pwr_ex.o(i.HAL_PWREx_EnableOverDrive)
    i.HAL_RCCEx_PeriphCLKConfig              0x08001cf0   Section        0  stm32f7xx_hal_rcc_ex.o(i.HAL_RCCEx_PeriphCLKConfig)
    i.HAL_RCC_ClockConfig                    0x08002670   Section        0  stm32f7xx_hal_rcc.o(i.HAL_RCC_ClockConfig)
    i.HAL_RCC_GetHCLKFreq                    0x08002824   Section        0  stm32f7xx_hal_rcc.o(i.HAL_RCC_GetHCLKFreq)
    i.HAL_RCC_GetPCLK1Freq                   0x08002830   Section        0  stm32f7xx_hal_rcc.o(i.HAL_RCC_GetPCLK1Freq)
    i.HAL_RCC_GetPCLK2Freq                   0x0800285c   Section        0  stm32f7xx_hal_rcc.o(i.HAL_RCC_GetPCLK2Freq)
    i.HAL_RCC_GetSysClockFreq                0x08002888   Section        0  stm32f7xx_hal_rcc.o(i.HAL_RCC_GetSysClockFreq)
    i.HAL_RCC_OscConfig                      0x0800293c   Section        0  stm32f7xx_hal_rcc_ex.o(i.HAL_RCC_OscConfig)
    i.HAL_SDRAM_Init                         0x08002e0c   Section        0  stm32f7xx_hal_sdram.o(i.HAL_SDRAM_Init)
    i.HAL_SDRAM_MspInit                      0x08002e4c   Section        0  sdram.o(i.HAL_SDRAM_MspInit)
    i.HAL_SDRAM_ProgramRefreshRate           0x08002f68   Section        0  stm32f7xx_hal_sdram.o(i.HAL_SDRAM_ProgramRefreshRate)
    i.HAL_SDRAM_SendCommand                  0x08002f90   Section        0  stm32f7xx_hal_sdram.o(i.HAL_SDRAM_SendCommand)
    i.HAL_SRAM_Init                          0x08002fca   Section        0  stm32f7xx_hal_sram.o(i.HAL_SRAM_Init)
    i.HAL_SRAM_MspInit                       0x08003024   Section        0  lcd.o(i.HAL_SRAM_MspInit)
    i.HAL_SYSTICK_CLKSourceConfig            0x080030bc   Section        0  stm32f7xx_hal_cortex.o(i.HAL_SYSTICK_CLKSourceConfig)
    i.HAL_SYSTICK_Config                     0x080030e4   Section        0  stm32f7xx_hal_cortex.o(i.HAL_SYSTICK_Config)
    i.HAL_UART_Init                          0x08003118   Section        0  stm32f7xx_hal_uart.o(i.HAL_UART_Init)
    i.HAL_UART_MspInit                       0x08003190   Section        0  usart.o(i.HAL_UART_MspInit)
    i.HAL_UART_Receive                       0x080032cc   Section        0  stm32f7xx_hal_uart.o(i.HAL_UART_Receive)
    i.HAL_UART_Transmit                      0x080033de   Section        0  stm32f7xx_hal_uart.o(i.HAL_UART_Transmit)
    i.HardFault_Handler                      0x080034a4   Section        0  stm32f7xx_it.o(i.HardFault_Handler)
    i.LCD_Clear                              0x080034a8   Section        0  lcd.o(i.LCD_Clear)
    i.LCD_Display_Dir                        0x080034f0   Section        0  lcd.o(i.LCD_Display_Dir)
    i.LCD_Fast_DrawPoint                     0x08003670   Section        0  lcd.o(i.LCD_Fast_DrawPoint)
    i.LCD_Init                               0x08003794   Section        0  lcd.o(i.LCD_Init)
    i.LCD_MPU_Config                         0x08005c08   Section        0  lcd.o(i.LCD_MPU_Config)
    i.LCD_Pow                                0x08005c8c   Section        0  lcd.o(i.LCD_Pow)
    i.LCD_RD_DATA                            0x08005ca4   Section        0  lcd.o(i.LCD_RD_DATA)
    i.LCD_SSD_BackLightSet                   0x08005cb8   Section        0  lcd.o(i.LCD_SSD_BackLightSet)
    i.LCD_Scan_Dir                           0x08005d08   Section        0  lcd.o(i.LCD_Scan_Dir)
    i.LCD_SetCursor                          0x08005f7c   Section        0  lcd.o(i.LCD_SetCursor)
    i.LCD_ShowChar                           0x080060b4   Section        0  lcd.o(i.LCD_ShowChar)
    i.LCD_ShowNum                            0x080061f0   Section        0  lcd.o(i.LCD_ShowNum)
    i.LCD_ShowString                         0x08006284   Section        0  lcd.o(i.LCD_ShowString)
    i.LCD_ShowxNum                           0x080062ea   Section        0  lcd.o(i.LCD_ShowxNum)
    i.LCD_WR_DATA                            0x080063a8   Section        0  lcd.o(i.LCD_WR_DATA)
    i.LCD_WR_REG                             0x080063c0   Section        0  lcd.o(i.LCD_WR_REG)
    i.LCD_WriteRAM_Prepare                   0x080063d8   Section        0  lcd.o(i.LCD_WriteRAM_Prepare)
    i.LCD_WriteReg                           0x080063ec   Section        0  lcd.o(i.LCD_WriteReg)
    i.LED_Init                               0x080063fc   Section        0  led.o(i.LED_Init)
    i.LTDC_Clear                             0x08006454   Section        0  ltdc.o(i.LTDC_Clear)
    i.LTDC_Clk_Set                           0x08006478   Section        0  ltdc.o(i.LTDC_Clk_Set)
    i.LTDC_Display_Dir                       0x080064a0   Section        0  ltdc.o(i.LTDC_Display_Dir)
    i.LTDC_Draw_Point                        0x080064cc   Section        0  ltdc.o(i.LTDC_Draw_Point)
    i.LTDC_Fill                              0x0800651c   Section        0  ltdc.o(i.LTDC_Fill)
    i.LTDC_Init                              0x08006664   Section        0  ltdc.o(i.LTDC_Init)
    i.LTDC_Layer_Parameter_Config            0x08006898   Section        0  ltdc.o(i.LTDC_Layer_Parameter_Config)
    i.LTDC_Layer_Window_Config               0x08006914   Section        0  ltdc.o(i.LTDC_Layer_Window_Config)
    i.LTDC_PanelID_Read                      0x08006944   Section        0  ltdc.o(i.LTDC_PanelID_Read)
    i.LTDC_Select_Layer                      0x08006a0c   Section        0  ltdc.o(i.LTDC_Select_Layer)
    i.LTDC_SetConfig                         0x08006a18   Section        0  stm32f7xx_hal_ltdc.o(i.LTDC_SetConfig)
    LTDC_SetConfig                           0x08006a19   Thumb Code   530  stm32f7xx_hal_ltdc.o(i.LTDC_SetConfig)
    i.Mem_Clr                                0x08006c2a   Section        0  lib_mem.o(i.Mem_Clr)
    i.Mem_Set                                0x08006c3c   Section        0  lib_mem.o(i.Mem_Set)
    i.NMI_Handler                            0x08006c90   Section        0  stm32f7xx_it.o(i.NMI_Handler)
    i.NVIC_GetPriorityGrouping               0x08006c94   Section        0  stm32f7xx_hal_cortex.o(i.NVIC_GetPriorityGrouping)
    NVIC_GetPriorityGrouping                 0x08006c95   Thumb Code    10  stm32f7xx_hal_cortex.o(i.NVIC_GetPriorityGrouping)
    i.NVIC_SetPriority                       0x08006ca4   Section        0  stm32f7xx_hal_cortex.o(i.NVIC_SetPriority)
    NVIC_SetPriority                         0x08006ca5   Thumb Code    32  stm32f7xx_hal_cortex.o(i.NVIC_SetPriority)
    i.OSCfg_Init                             0x08006ccc   Section        0  os_cfg_app.o(i.OSCfg_Init)
    i.OSIdleTaskHook                         0x08006cd0   Section        0  os_cpu_c.o(i.OSIdleTaskHook)
    i.OSInit                                 0x08006ce4   Section        0  os_core.o(i.OSInit)
    i.OSInitHook                             0x08006e30   Section        0  os_cpu_c.o(i.OSInitHook)
    i.OSIntEnter                             0x08006e58   Section        0  os_core.o(i.OSIntEnter)
    i.OSIntExit                              0x08006e84   Section        0  os_core.o(i.OSIntExit)
    i.OSMutexCreate                          0x08006f60   Section        0  os_mutex.o(i.OSMutexCreate)
    i.OSMutexPend                            0x08006fcc   Section        0  os_mutex.o(i.OSMutexPend)
    i.OSMutexPost                            0x080071b8   Section        0  os_mutex.o(i.OSMutexPost)
    i.OSSched                                0x08007334   Section        0  os_core.o(i.OSSched)
    i.OSSchedLock                            0x080073d8   Section        0  os_core.o(i.OSSchedLock)
    i.OSSchedUnlock                          0x0800743c   Section        0  os_core.o(i.OSSchedUnlock)
    i.OSSemCreate                            0x080074c4   Section        0  os_sem.o(i.OSSemCreate)
    i.OSSemPend                              0x0800752c   Section        0  os_sem.o(i.OSSemPend)
    i.OSSemPost                              0x080076b4   Section        0  os_sem.o(i.OSSemPost)
    i.OSStart                                0x080076f0   Section        0  os_core.o(i.OSStart)
    i.OSStatReset                            0x08007758   Section        0  os_stat.o(i.OSStatReset)
    i.OSStatTaskCPUUsageInit                 0x080078a0   Section        0  os_stat.o(i.OSStatTaskCPUUsageInit)
    i.OSStatTaskHook                         0x080079a0   Section        0  os_cpu_c.o(i.OSStatTaskHook)
    i.OSTaskCreate                           0x080079b4   Section        0  os_task.o(i.OSTaskCreate)
    i.OSTaskCreateHook                       0x08007af8   Section        0  os_cpu_c.o(i.OSTaskCreateHook)
    i.OSTaskDel                              0x08007b10   Section        0  os_task.o(i.OSTaskDel)
    i.OSTaskDelHook                          0x08007cac   Section        0  os_cpu_c.o(i.OSTaskDelHook)
    i.OSTaskResume                           0x08007cc4   Section        0  os_task.o(i.OSTaskResume)
    i.OSTaskReturnHook                       0x08007cfc   Section        0  os_cpu_c.o(i.OSTaskReturnHook)
    i.OSTaskSemPend                          0x08007d14   Section        0  os_task.o(i.OSTaskSemPend)
    i.OSTaskSemPost                          0x08007edc   Section        0  os_task.o(i.OSTaskSemPost)
    i.OSTaskStkChk                           0x08007f00   Section        0  os_task.o(i.OSTaskStkChk)
    i.OSTaskStkInit                          0x08007fbc   Section        0  os_cpu_c.o(i.OSTaskStkInit)
    i.OSTaskSuspend                          0x08008280   Section        0  os_task.o(i.OSTaskSuspend)
    i.OSTaskSwHook                           0x080082a4   Section        0  os_cpu_c.o(i.OSTaskSwHook)
    i.OSTimeDly                              0x08008350   Section        0  os_time.o(i.OSTimeDly)
    i.OSTimeDlyHMSM                          0x08008400   Section        0  os_time.o(i.OSTimeDlyHMSM)
    i.OSTimeTick                             0x08008514   Section        0  os_time.o(i.OSTimeTick)
    i.OSTimeTickHook                         0x08008558   Section        0  os_cpu_c.o(i.OSTimeTickHook)
    i.OS_Dbg_Init                            0x0800856c   Section        0  os_dbg.o(i.OS_Dbg_Init)
    i.OS_FlagInit                            0x08008714   Section        0  os_flag.o(i.OS_FlagInit)
    i.OS_IdleTask                            0x0800872c   Section        0  os_core.o(i.OS_IdleTask)
    i.OS_IdleTaskInit                        0x08008778   Section        0  os_core.o(i.OS_IdleTaskInit)
    i.OS_MemInit                             0x080087e8   Section        0  os_mem.o(i.OS_MemInit)
    i.OS_MsgPoolInit                         0x08008800   Section        0  os_msg.o(i.OS_MsgPoolInit)
    i.OS_MsgQFreeAll                         0x0800885c   Section        0  os_msg.o(i.OS_MsgQFreeAll)
    i.OS_MsgQInit                            0x080088a0   Section        0  os_msg.o(i.OS_MsgQInit)
    i.OS_MutexDbgListAdd                     0x080088b0   Section        0  os_mutex.o(i.OS_MutexDbgListAdd)
    i.OS_MutexGrpAdd                         0x080088e0   Section        0  os_mutex.o(i.OS_MutexGrpAdd)
    i.OS_MutexGrpPostAll                     0x080088e8   Section        0  os_mutex.o(i.OS_MutexGrpPostAll)
    i.OS_MutexGrpPrioFindHighest             0x08008948   Section        0  os_mutex.o(i.OS_MutexGrpPrioFindHighest)
    i.OS_MutexGrpRemove                      0x08008974   Section        0  os_mutex.o(i.OS_MutexGrpRemove)
    i.OS_MutexInit                           0x08008990   Section        0  os_mutex.o(i.OS_MutexInit)
    i.OS_Pend                                0x080089a8   Section        0  os_core.o(i.OS_Pend)
    i.OS_PendDataInit                        0x08008a10   Section        0  os_core.o(i.OS_PendDataInit)
    i.OS_PendDbgNameAdd                      0x08008a38   Section        0  os_core.o(i.OS_PendDbgNameAdd)
    i.OS_PendDbgNameRemove                   0x08008a94   Section        0  os_core.o(i.OS_PendDbgNameRemove)
    i.OS_PendListChangePrio                  0x08008ab8   Section        0  os_core.o(i.OS_PendListChangePrio)
    i.OS_PendListInit                        0x08008af2   Section        0  os_core.o(i.OS_PendListInit)
    i.OS_PendListInsertPrio                  0x08008afc   Section        0  os_core.o(i.OS_PendListInsertPrio)
    i.OS_PendListRemove                      0x08008b62   Section        0  os_core.o(i.OS_PendListRemove)
    i.OS_PendListRemove1                     0x08008b96   Section        0  os_core.o(i.OS_PendListRemove1)
    i.OS_Post                                0x08008bd8   Section        0  os_core.o(i.OS_Post)
    i.OS_Post1                               0x08008cae   Section        0  os_core.o(i.OS_Post1)
    i.OS_PrioGetHighest                      0x08008cdc   Section        0  os_prio.o(i.OS_PrioGetHighest)
    i.OS_PrioInit                            0x08008d04   Section        0  os_prio.o(i.OS_PrioInit)
    i.OS_PrioInsert                          0x08008d1c   Section        0  os_prio.o(i.OS_PrioInsert)
    i.OS_PrioRemove                          0x08008d40   Section        0  os_prio.o(i.OS_PrioRemove)
    i.OS_QInit                               0x08008d64   Section        0  os_q.o(i.OS_QInit)
    i.OS_RdyListInit                         0x08008d7c   Section        0  os_core.o(i.OS_RdyListInit)
    i.OS_RdyListInsert                       0x08008da0   Section        0  os_core.o(i.OS_RdyListInsert)
    i.OS_RdyListInsertHead                   0x08008dcc   Section        0  os_core.o(i.OS_RdyListInsertHead)
    i.OS_RdyListInsertTail                   0x08008e0c   Section        0  os_core.o(i.OS_RdyListInsertTail)
    i.OS_RdyListRemove                       0x08008e48   Section        0  os_core.o(i.OS_RdyListRemove)
    i.OS_SemDbgListAdd                       0x08008ea4   Section        0  os_sem.o(i.OS_SemDbgListAdd)
    i.OS_SemInit                             0x08008ed4   Section        0  os_sem.o(i.OS_SemInit)
    i.OS_SemPost                             0x08008eec   Section        0  os_sem.o(i.OS_SemPost)
    i.OS_StatTask                            0x0800902c   Section        0  os_stat.o(i.OS_StatTask)
    i.OS_StatTaskInit                        0x08009350   Section        0  os_stat.o(i.OS_StatTaskInit)
    i.OS_TaskBlock                           0x0800941c   Section        0  os_core.o(i.OS_TaskBlock)
    i.OS_TaskChangePrio                      0x08009448   Section        0  os_task.o(i.OS_TaskChangePrio)
    i.OS_TaskDbgListAdd                      0x08009534   Section        0  os_task.o(i.OS_TaskDbgListAdd)
    i.OS_TaskDbgListRemove                   0x08009564   Section        0  os_task.o(i.OS_TaskDbgListRemove)
    i.OS_TaskInit                            0x080095a8   Section        0  os_task.o(i.OS_TaskInit)
    i.OS_TaskInitTCB                         0x080095c8   Section        0  os_task.o(i.OS_TaskInitTCB)
    i.OS_TaskResume                          0x0800968c   Section        0  os_task.o(i.OS_TaskResume)
    i.OS_TaskReturn                          0x080097a8   Section        0  os_task.o(i.OS_TaskReturn)
    i.OS_TaskSemPost                         0x080097c0   Section        0  os_task.o(i.OS_TaskSemPost)
    i.OS_TaskSuspend                         0x080099b0   Section        0  os_task.o(i.OS_TaskSuspend)
    i.OS_TickListInsert                      0x08009ae8   Section        0  os_tick.o(i.OS_TickListInsert)
    i.OS_TickListInsertDly                   0x08009b70   Section        0  os_tick.o(i.OS_TickListInsertDly)
    i.OS_TickListRemove                      0x08009c2c   Section        0  os_tick.o(i.OS_TickListRemove)
    i.OS_TickListUpdateDly                   0x08009c84   Section        0  os_tick.o(i.OS_TickListUpdateDly)
    OS_TickListUpdateDly                     0x08009c85   Thumb Code   154  os_tick.o(i.OS_TickListUpdateDly)
    i.OS_TickListUpdateTimeout               0x08009d24   Section        0  os_tick.o(i.OS_TickListUpdateTimeout)
    OS_TickListUpdateTimeout                 0x08009d25   Thumb Code   280  os_tick.o(i.OS_TickListUpdateTimeout)
    i.OS_TickTask                            0x08009e40   Section        0  os_tick.o(i.OS_TickTask)
    i.OS_TickTaskInit                        0x08009eac   Section        0  os_tick.o(i.OS_TickTaskInit)
    i.OS_TmrInit                             0x08009f74   Section        0  os_tmr.o(i.OS_TmrInit)
    i.OS_TmrLock                             0x0800a0a8   Section        0  os_tmr.o(i.OS_TmrLock)
    OS_TmrLock                               0x0800a0a9   Thumb Code    20  os_tmr.o(i.OS_TmrLock)
    i.OS_TmrTask                             0x0800a0c0   Section        0  os_tmr.o(i.OS_TmrTask)
    i.OS_TmrUnlink                           0x0800a154   Section        0  os_tmr.o(i.OS_TmrUnlink)
    i.OS_TmrUnlock                           0x0800a198   Section        0  os_tmr.o(i.OS_TmrUnlock)
    OS_TmrUnlock                             0x0800a199   Thumb Code    14  os_tmr.o(i.OS_TmrUnlock)
    i.SCB_EnableDCache                       0x0800a1ac   Section        0  sys.o(i.SCB_EnableDCache)
    SCB_EnableDCache                         0x0800a1ad   Thumb Code   148  sys.o(i.SCB_EnableDCache)
    i.SDRAM_Init                             0x0800a248   Section        0  sdram.o(i.SDRAM_Init)
    i.SDRAM_Send_Cmd                         0x0800a2f4   Section        0  sdram.o(i.SDRAM_Send_Cmd)
    i.SVC_Handler                            0x0800a33c   Section        0  stm32f7xx_it.o(i.SVC_Handler)
    i.Stm32_Clock_Init                       0x0800a340   Section        0  sys.o(i.Stm32_Clock_Init)
    i.SysTick_Handler                        0x0800a3f4   Section        0  delay.o(i.SysTick_Handler)
    i.SystemInit                             0x0800a414   Section        0  system_stm32f7xx.o(i.SystemInit)
    i.UART7_IRQHandler                       0x0800a478   Section        0  usart.o(i.UART7_IRQHandler)
    i.UART_AdvFeatureConfig                  0x0800a500   Section        0  stm32f7xx_hal_uart.o(i.UART_AdvFeatureConfig)
    i.UART_CheckIdleState                    0x0800a5ea   Section        0  stm32f7xx_hal_uart.o(i.UART_CheckIdleState)
    i.UART_SetConfig                         0x0800a660   Section        0  stm32f7xx_hal_uart.o(i.UART_SetConfig)
    i.UART_WaitOnFlagUntilTimeout            0x0800a9ec   Section        0  stm32f7xx_hal_uart.o(i.UART_WaitOnFlagUntilTimeout)
    i.USART2_IRQHandler                      0x0800aa58   Section        0  usart.o(i.USART2_IRQHandler)
    i.UsageFault_Handler                     0x0800ab28   Section        0  stm32f7xx_it.o(i.UsageFault_Handler)
    i._sys_exit                              0x0800ab2c   Section        0  usart.o(i._sys_exit)
    i.delay_init                             0x0800ab30   Section        0  delay.o(i.delay_init)
    i.delay_ms                               0x0800ab8c   Section        0  delay.o(i.delay_ms)
    i.delay_osschedlock                      0x0800abdc   Section        0  delay.o(i.delay_osschedlock)
    i.delay_osschedunlock                    0x0800abe6   Section        0  delay.o(i.delay_osschedunlock)
    i.delay_ostimedly                        0x0800abf0   Section        0  delay.o(i.delay_ostimedly)
    i.delay_us                               0x0800ac00   Section        0  delay.o(i.delay_us)
    i.main                                   0x0800ac58   Section        0  main.o(i.main)
    i.start_task                             0x0800ad68   Section        0  main.o(i.start_task)
    i.task2_task                             0x0800ae58   Section        0  main.o(i.task2_task)
    i.uart2_init                             0x0800ae98   Section        0  usart.o(i.uart2_init)
    i.uart7_init                             0x0800aec4   Section        0  usart.o(i.uart7_init)
    i.uart_init                              0x0800aef0   Section        0  usart.o(i.uart_init)
    locale$$code                             0x0800af04   Section       44  lc_ctype_c.o(locale$$code)
    x$fpl$fpinit                             0x0800af30   Section       10  fpinit.o(x$fpl$fpinit)
    $v0                                      0x0800af30   Number         0  fpinit.o(x$fpl$fpinit)
    .constdata                               0x0800af3a   Section       24  system_stm32f7xx.o(.constdata)
    .constdata                               0x0800af52   Section    18240  lcd.o(.constdata)
    .constdata                               0x0800f694   Section      148  os_cfg_app.o(.constdata)
    .constdata                               0x0800f728   Section      364  os_dbg.o(.constdata)
    locale$$data                             0x0800f8b4   Section      272  lc_ctype_c.o(locale$$data)
    __lcctype_c_name                         0x0800f8b8   Data           2  lc_ctype_c.o(locale$$data)
    __lcctype_c_start                        0x0800f8c0   Data           0  lc_ctype_c.o(locale$$data)
    __lcctype_c_end                          0x0800f9c4   Data           0  lc_ctype_c.o(locale$$data)
    .data                                    0x20020000   Section        4  system_stm32f7xx.o(.data)
    .data                                    0x20020004   Section        4  stm32f7xx_hal.o(.data)
    .data                                    0x20020008   Section        6  delay.o(.data)
    fac_us                                   0x20020008   Data           4  delay.o(.data)
    fac_ms                                   0x2002000c   Data           2  delay.o(.data)
    .data                                    0x20020010   Section       12  usart.o(.data)
    .data                                    0x2002001c   Section        8  lcd.o(.data)
    .data                                    0x20020024   Section        8  ltdc.o(.data)
    .data                                    0x2002002c   Section       22  gps.o(.data)
    .data                                    0x20020044   Section       28  cpu_core.o(.data)
    .data                                    0x20020060   Section        8  os_prio.o(.data)
    .data                                    0x20020068   Section      188  os_var.o(.data)
    .data                                    0x20020124   Section        4  os_cpu_c.o(.data)
    .bss                                     0x20020128   Section     2152  main.o(.bss)
    .bss                                     0x20020990   Section     1660  usart.o(.bss)
    .bss                                     0x2002100c   Section       90  lcd.o(.bss)
    .bss                                     0x20021068   Section      288  ltdc.o(.bss)
    .bss                                     0x20021188   Section       52  sdram.o(.bss)
    .bss                                     0x200211bc   Section      204  gps.o(.bss)
    .bss                                     0x20021288   Section       16  cpu_core.o(.bss)
    .bss                                     0x20021298   Section     3936  os_cfg_app.o(.bss)
    .bss                                     0x200221f8   Section     1596  os_var.o(.bss)
    .bss                                     0x20022834   Section       96  libspace.o(.bss)
    HEAP                                     0x20022898   Section      512  startup_stm32f767xx.o(HEAP)
    Heap_Mem                                 0x20022898   Data         512  startup_stm32f767xx.o(HEAP)
    STACK                                    0x20022a98   Section     1024  startup_stm32f767xx.o(STACK)
    Stack_Mem                                0x20022a98   Data        1024  startup_stm32f767xx.o(STACK)
    __initial_sp                             0x20022e98   Data           0  startup_stm32f767xx.o(STACK)
    .ARM.__AT_0xC0000000                     0xc0000000   Section    2048000  ltdc.o(.ARM.__AT_0xC0000000)

    Global Symbols

    Symbol Name                              Value     Ov Type        Size  Object(Section)

    BuildAttributes$$THM_ISAv4$E$P$D$K$B$S$7EM$VFPv5_D16$PE$PLD8$A:L22UL41UL21$X:L11$S22US41US21$IEEE1$IW$USESV6$~STKCKD$USESV7$~SHL$OSPACE$ROPI$EBA8$UX$STANDARDLIB$REQ8$PRES8$EABIv2 0x00000000   Number         0  anon$$obj.o ABSOLUTE
    __ARM_use_no_argv                        0x00000000   Number         0  main.o ABSOLUTE
    __ARM_exceptions_init                     - Undefined Weak Reference
    __alloca_initialize                       - Undefined Weak Reference
    __arm_preinit_                            - Undefined Weak Reference
    __cpp_initialize__aeabi_                  - Undefined Weak Reference
    __cxa_finalize                            - Undefined Weak Reference
    __sigvec_lookup                           - Undefined Weak Reference
    _atexit_init                              - Undefined Weak Reference
    _call_atexit_fns                          - Undefined Weak Reference
    _clock_init                               - Undefined Weak Reference
    _fp_trap_init                             - Undefined Weak Reference
    _fp_trap_shutdown                         - Undefined Weak Reference
    _get_lc_collate                           - Undefined Weak Reference
    _get_lc_monetary                          - Undefined Weak Reference
    _get_lc_numeric                           - Undefined Weak Reference
    _get_lc_time                              - Undefined Weak Reference
    _getenv_init                              - Undefined Weak Reference
    _handle_redirection                       - Undefined Weak Reference
    _init_alloc                               - Undefined Weak Reference
    _init_user_alloc                          - Undefined Weak Reference
    _initio                                   - Undefined Weak Reference
    _rand_init                                - Undefined Weak Reference
    _signal_finish                            - Undefined Weak Reference
    _signal_init                              - Undefined Weak Reference
    _terminate_alloc                          - Undefined Weak Reference
    _terminate_user_alloc                     - Undefined Weak Reference
    _terminateio                              - Undefined Weak Reference
    __Vectors_Size                           0x000001f8   Number         0  startup_stm32f767xx.o ABSOLUTE
    __Vectors                                0x08000000   Data           4  startup_stm32f767xx.o(RESET)
    __Vectors_End                            0x080001f8   Data           0  startup_stm32f767xx.o(RESET)
    __main                                   0x080001f9   Thumb Code     8  __main.o(!!!main)
    __scatterload                            0x08000201   Thumb Code     0  __scatter.o(!!!scatter)
    __scatterload_rt2                        0x08000201   Thumb Code    44  __scatter.o(!!!scatter)
    __scatterload_rt2_thumb_only             0x08000201   Thumb Code     0  __scatter.o(!!!scatter)
    __scatterload_null                       0x0800020f   Thumb Code     0  __scatter.o(!!!scatter)
    __scatterload_copy                       0x08000235   Thumb Code    26  __scatter_copy.o(!!handler_copy)
    __scatterload_zeroinit                   0x08000251   Thumb Code    28  __scatter_zi.o(!!handler_zi)
    __rt_lib_init                            0x0800026d   Thumb Code     0  libinit.o(.ARM.Collect$$libinit$$00000000)
    __rt_lib_init_fp_1                       0x0800026f   Thumb Code     0  libinit2.o(.ARM.Collect$$libinit$$00000001)
    __rt_lib_init_heap_1                     0x08000273   Thumb Code     0  libinit2.o(.ARM.Collect$$libinit$$0000000A)
    __rt_lib_init_lc_common                  0x08000273   Thumb Code     0  libinit2.o(.ARM.Collect$$libinit$$0000000F)
    __rt_lib_init_preinit_1                  0x08000273   Thumb Code     0  libinit2.o(.ARM.Collect$$libinit$$00000004)
    __rt_lib_init_rand_1                     0x08000273   Thumb Code     0  libinit2.o(.ARM.Collect$$libinit$$0000000E)
    __rt_lib_init_user_alloc_1               0x08000273   Thumb Code     0  libinit2.o(.ARM.Collect$$libinit$$0000000C)
    __rt_lib_init_lc_collate_1               0x08000279   Thumb Code     0  libinit2.o(.ARM.Collect$$libinit$$00000011)
    __rt_lib_init_lc_ctype_2                 0x08000279   Thumb Code     0  libinit2.o(.ARM.Collect$$libinit$$00000012)
    __rt_lib_init_alloca_1                   0x08000285   Thumb Code     0  libinit2.o(.ARM.Collect$$libinit$$0000002E)
    __rt_lib_init_argv_1                     0x08000285   Thumb Code     0  libinit2.o(.ARM.Collect$$libinit$$0000002C)
    __rt_lib_init_atexit_1                   0x08000285   Thumb Code     0  libinit2.o(.ARM.Collect$$libinit$$0000001B)
    __rt_lib_init_clock_1                    0x08000285   Thumb Code     0  libinit2.o(.ARM.Collect$$libinit$$00000021)
    __rt_lib_init_cpp_1                      0x08000285   Thumb Code     0  libinit2.o(.ARM.Collect$$libinit$$00000032)
    __rt_lib_init_exceptions_1               0x08000285   Thumb Code     0  libinit2.o(.ARM.Collect$$libinit$$00000030)
    __rt_lib_init_fp_trap_1                  0x08000285   Thumb Code     0  libinit2.o(.ARM.Collect$$libinit$$0000001F)
    __rt_lib_init_getenv_1                   0x08000285   Thumb Code     0  libinit2.o(.ARM.Collect$$libinit$$00000023)
    __rt_lib_init_lc_ctype_1                 0x08000285   Thumb Code     0  libinit2.o(.ARM.Collect$$libinit$$00000013)
    __rt_lib_init_lc_monetary_1              0x08000285   Thumb Code     0  libinit2.o(.ARM.Collect$$libinit$$00000015)
    __rt_lib_init_lc_numeric_1               0x08000285   Thumb Code     0  libinit2.o(.ARM.Collect$$libinit$$00000017)
    __rt_lib_init_lc_time_1                  0x08000285   Thumb Code     0  libinit2.o(.ARM.Collect$$libinit$$00000019)
    __rt_lib_init_return                     0x08000285   Thumb Code     0  libinit2.o(.ARM.Collect$$libinit$$00000033)
    __rt_lib_init_signal_1                   0x08000285   Thumb Code     0  libinit2.o(.ARM.Collect$$libinit$$0000001D)
    __rt_lib_init_stdio_1                    0x08000285   Thumb Code     0  libinit2.o(.ARM.Collect$$libinit$$00000025)
    __rt_lib_shutdown                        0x08000287   Thumb Code     0  libshutdown.o(.ARM.Collect$$libshutdown$$00000000)
    __rt_lib_shutdown_cpp_1                  0x08000289   Thumb Code     0  libshutdown2.o(.ARM.Collect$$libshutdown$$00000002)
    __rt_lib_shutdown_fp_trap_1              0x08000289   Thumb Code     0  libshutdown2.o(.ARM.Collect$$libshutdown$$00000007)
    __rt_lib_shutdown_heap_1                 0x08000289   Thumb Code     0  libshutdown2.o(.ARM.Collect$$libshutdown$$0000000F)
    __rt_lib_shutdown_return                 0x08000289   Thumb Code     0  libshutdown2.o(.ARM.Collect$$libshutdown$$00000010)
    __rt_lib_shutdown_signal_1               0x08000289   Thumb Code     0  libshutdown2.o(.ARM.Collect$$libshutdown$$0000000A)
    __rt_lib_shutdown_stdio_1                0x08000289   Thumb Code     0  libshutdown2.o(.ARM.Collect$$libshutdown$$00000004)
    __rt_lib_shutdown_user_alloc_1           0x08000289   Thumb Code     0  libshutdown2.o(.ARM.Collect$$libshutdown$$0000000C)
    __rt_entry                               0x0800028b   Thumb Code     0  __rtentry.o(.ARM.Collect$$rtentry$$00000000)
    __rt_entry_presh_1                       0x0800028b   Thumb Code     0  __rtentry2.o(.ARM.Collect$$rtentry$$00000002)
    __rt_entry_sh                            0x0800028b   Thumb Code     0  __rtentry4.o(.ARM.Collect$$rtentry$$00000004)
    __rt_entry_li                            0x08000291   Thumb Code     0  __rtentry2.o(.ARM.Collect$$rtentry$$0000000A)
    __rt_entry_postsh_1                      0x08000291   Thumb Code     0  __rtentry2.o(.ARM.Collect$$rtentry$$00000009)
    __rt_entry_main                          0x08000295   Thumb Code     0  __rtentry2.o(.ARM.Collect$$rtentry$$0000000D)
    __rt_entry_postli_1                      0x08000295   Thumb Code     0  __rtentry2.o(.ARM.Collect$$rtentry$$0000000C)
    __rt_exit                                0x0800029d   Thumb Code     0  rtexit.o(.ARM.Collect$$rtexit$$00000000)
    __rt_exit_ls                             0x0800029f   Thumb Code     0  rtexit2.o(.ARM.Collect$$rtexit$$00000003)
    __rt_exit_prels_1                        0x0800029f   Thumb Code     0  rtexit2.o(.ARM.Collect$$rtexit$$00000002)
    __rt_exit_exit                           0x080002a3   Thumb Code     0  rtexit2.o(.ARM.Collect$$rtexit$$00000004)
    Reset_Handler                            0x080002a9   Thumb Code    40  startup_stm32f767xx.o(.text)
    MemManage_Handler                        0x080002d5   Thumb Code     2  startup_stm32f767xx.o(.text)
    ADC_IRQHandler                           0x080002e3   Thumb Code     0  startup_stm32f767xx.o(.text)
    CAN1_RX0_IRQHandler                      0x080002e3   Thumb Code     0  startup_stm32f767xx.o(.text)
    CAN1_RX1_IRQHandler                      0x080002e3   Thumb Code     0  startup_stm32f767xx.o(.text)
    CAN1_SCE_IRQHandler                      0x080002e3   Thumb Code     0  startup_stm32f767xx.o(.text)
    CAN1_TX_IRQHandler                       0x080002e3   Thumb Code     0  startup_stm32f767xx.o(.text)
    CAN2_RX0_IRQHandler                      0x080002e3   Thumb Code     0  startup_stm32f767xx.o(.text)
    CAN2_RX1_IRQHandler                      0x080002e3   Thumb Code     0  startup_stm32f767xx.o(.text)
    CAN2_SCE_IRQHandler                      0x080002e3   Thumb Code     0  startup_stm32f767xx.o(.text)
    CAN2_TX_IRQHandler                       0x080002e3   Thumb Code     0  startup_stm32f767xx.o(.text)
    CAN3_RX0_IRQHandler                      0x080002e3   Thumb Code     0  startup_stm32f767xx.o(.text)
    CAN3_RX1_IRQHandler                      0x080002e3   Thumb Code     0  startup_stm32f767xx.o(.text)
    CAN3_SCE_IRQHandler                      0x080002e3   Thumb Code     0  startup_stm32f767xx.o(.text)
    CAN3_TX_IRQHandler                       0x080002e3   Thumb Code     0  startup_stm32f767xx.o(.text)
    CEC_IRQHandler                           0x080002e3   Thumb Code     0  startup_stm32f767xx.o(.text)
    DCMI_IRQHandler                          0x080002e3   Thumb Code     0  startup_stm32f767xx.o(.text)
    DFSDM1_FLT0_IRQHandler                   0x080002e3   Thumb Code     0  startup_stm32f767xx.o(.text)
    DFSDM1_FLT1_IRQHandler                   0x080002e3   Thumb Code     0  startup_stm32f767xx.o(.text)
    DFSDM1_FLT2_IRQHandler                   0x080002e3   Thumb Code     0  startup_stm32f767xx.o(.text)
    DFSDM1_FLT3_IRQHandler                   0x080002e3   Thumb Code     0  startup_stm32f767xx.o(.text)
    DMA1_Stream0_IRQHandler                  0x080002e3   Thumb Code     0  startup_stm32f767xx.o(.text)
    DMA1_Stream1_IRQHandler                  0x080002e3   Thumb Code     0  startup_stm32f767xx.o(.text)
    DMA1_Stream2_IRQHandler                  0x080002e3   Thumb Code     0  startup_stm32f767xx.o(.text)
    DMA1_Stream3_IRQHandler                  0x080002e3   Thumb Code     0  startup_stm32f767xx.o(.text)
    DMA1_Stream4_IRQHandler                  0x080002e3   Thumb Code     0  startup_stm32f767xx.o(.text)
    DMA1_Stream5_IRQHandler                  0x080002e3   Thumb Code     0  startup_stm32f767xx.o(.text)
    DMA1_Stream6_IRQHandler                  0x080002e3   Thumb Code     0  startup_stm32f767xx.o(.text)
    DMA1_Stream7_IRQHandler                  0x080002e3   Thumb Code     0  startup_stm32f767xx.o(.text)
    DMA2D_IRQHandler                         0x080002e3   Thumb Code     0  startup_stm32f767xx.o(.text)
    DMA2_Stream0_IRQHandler                  0x080002e3   Thumb Code     0  startup_stm32f767xx.o(.text)
    DMA2_Stream1_IRQHandler                  0x080002e3   Thumb Code     0  startup_stm32f767xx.o(.text)
    DMA2_Stream2_IRQHandler                  0x080002e3   Thumb Code     0  startup_stm32f767xx.o(.text)
    DMA2_Stream3_IRQHandler                  0x080002e3   Thumb Code     0  startup_stm32f767xx.o(.text)
    DMA2_Stream4_IRQHandler                  0x080002e3   Thumb Code     0  startup_stm32f767xx.o(.text)
    DMA2_Stream5_IRQHandler                  0x080002e3   Thumb Code     0  startup_stm32f767xx.o(.text)
    DMA2_Stream6_IRQHandler                  0x080002e3   Thumb Code     0  startup_stm32f767xx.o(.text)
    DMA2_Stream7_IRQHandler                  0x080002e3   Thumb Code     0  startup_stm32f767xx.o(.text)
    ETH_IRQHandler                           0x080002e3   Thumb Code     0  startup_stm32f767xx.o(.text)
    ETH_WKUP_IRQHandler                      0x080002e3   Thumb Code     0  startup_stm32f767xx.o(.text)
    EXTI0_IRQHandler                         0x080002e3   Thumb Code     0  startup_stm32f767xx.o(.text)
    EXTI15_10_IRQHandler                     0x080002e3   Thumb Code     0  startup_stm32f767xx.o(.text)
    EXTI1_IRQHandler                         0x080002e3   Thumb Code     0  startup_stm32f767xx.o(.text)
    EXTI2_IRQHandler                         0x080002e3   Thumb Code     0  startup_stm32f767xx.o(.text)
    EXTI3_IRQHandler                         0x080002e3   Thumb Code     0  startup_stm32f767xx.o(.text)
    EXTI4_IRQHandler                         0x080002e3   Thumb Code     0  startup_stm32f767xx.o(.text)
    EXTI9_5_IRQHandler                       0x080002e3   Thumb Code     0  startup_stm32f767xx.o(.text)
    FLASH_IRQHandler                         0x080002e3   Thumb Code     0  startup_stm32f767xx.o(.text)
    FMC_IRQHandler                           0x080002e3   Thumb Code     0  startup_stm32f767xx.o(.text)
    FPU_IRQHandler                           0x080002e3   Thumb Code     0  startup_stm32f767xx.o(.text)
    I2C1_ER_IRQHandler                       0x080002e3   Thumb Code     0  startup_stm32f767xx.o(.text)
    I2C1_EV_IRQHandler                       0x080002e3   Thumb Code     0  startup_stm32f767xx.o(.text)
    I2C2_ER_IRQHandler                       0x080002e3   Thumb Code     0  startup_stm32f767xx.o(.text)
    I2C2_EV_IRQHandler                       0x080002e3   Thumb Code     0  startup_stm32f767xx.o(.text)
    I2C3_ER_IRQHandler                       0x080002e3   Thumb Code     0  startup_stm32f767xx.o(.text)
    I2C3_EV_IRQHandler                       0x080002e3   Thumb Code     0  startup_stm32f767xx.o(.text)
    I2C4_ER_IRQHandler                       0x080002e3   Thumb Code     0  startup_stm32f767xx.o(.text)
    I2C4_EV_IRQHandler                       0x080002e3   Thumb Code     0  startup_stm32f767xx.o(.text)
    JPEG_IRQHandler                          0x080002e3   Thumb Code     0  startup_stm32f767xx.o(.text)
    LPTIM1_IRQHandler                        0x080002e3   Thumb Code     0  startup_stm32f767xx.o(.text)
    LTDC_ER_IRQHandler                       0x080002e3   Thumb Code     0  startup_stm32f767xx.o(.text)
    LTDC_IRQHandler                          0x080002e3   Thumb Code     0  startup_stm32f767xx.o(.text)
    MDIOS_IRQHandler                         0x080002e3   Thumb Code     0  startup_stm32f767xx.o(.text)
    OTG_FS_IRQHandler                        0x080002e3   Thumb Code     0  startup_stm32f767xx.o(.text)
    OTG_FS_WKUP_IRQHandler                   0x080002e3   Thumb Code     0  startup_stm32f767xx.o(.text)
    OTG_HS_EP1_IN_IRQHandler                 0x080002e3   Thumb Code     0  startup_stm32f767xx.o(.text)
    OTG_HS_EP1_OUT_IRQHandler                0x080002e3   Thumb Code     0  startup_stm32f767xx.o(.text)
    OTG_HS_IRQHandler                        0x080002e3   Thumb Code     0  startup_stm32f767xx.o(.text)
    OTG_HS_WKUP_IRQHandler                   0x080002e3   Thumb Code     0  startup_stm32f767xx.o(.text)
    PVD_IRQHandler                           0x080002e3   Thumb Code     0  startup_stm32f767xx.o(.text)
    QUADSPI_IRQHandler                       0x080002e3   Thumb Code     0  startup_stm32f767xx.o(.text)
    RCC_IRQHandler                           0x080002e3   Thumb Code     0  startup_stm32f767xx.o(.text)
    RNG_IRQHandler                           0x080002e3   Thumb Code     0  startup_stm32f767xx.o(.text)
    RTC_Alarm_IRQHandler                     0x080002e3   Thumb Code     0  startup_stm32f767xx.o(.text)
    RTC_WKUP_IRQHandler                      0x080002e3   Thumb Code     0  startup_stm32f767xx.o(.text)
    SAI1_IRQHandler                          0x080002e3   Thumb Code     0  startup_stm32f767xx.o(.text)
    SAI2_IRQHandler                          0x080002e3   Thumb Code     0  startup_stm32f767xx.o(.text)
    SDMMC1_IRQHandler                        0x080002e3   Thumb Code     0  startup_stm32f767xx.o(.text)
    SDMMC2_IRQHandler                        0x080002e3   Thumb Code     0  startup_stm32f767xx.o(.text)
    SPDIF_RX_IRQHandler                      0x080002e3   Thumb Code     0  startup_stm32f767xx.o(.text)
    SPI1_IRQHandler                          0x080002e3   Thumb Code     0  startup_stm32f767xx.o(.text)
    SPI2_IRQHandler                          0x080002e3   Thumb Code     0  startup_stm32f767xx.o(.text)
    SPI3_IRQHandler                          0x080002e3   Thumb Code     0  startup_stm32f767xx.o(.text)
    SPI4_IRQHandler                          0x080002e3   Thumb Code     0  startup_stm32f767xx.o(.text)
    SPI5_IRQHandler                          0x080002e3   Thumb Code     0  startup_stm32f767xx.o(.text)
    SPI6_IRQHandler                          0x080002e3   Thumb Code     0  startup_stm32f767xx.o(.text)
    TAMP_STAMP_IRQHandler                    0x080002e3   Thumb Code     0  startup_stm32f767xx.o(.text)
    TIM1_BRK_TIM9_IRQHandler                 0x080002e3   Thumb Code     0  startup_stm32f767xx.o(.text)
    TIM1_CC_IRQHandler                       0x080002e3   Thumb Code     0  startup_stm32f767xx.o(.text)
    TIM1_TRG_COM_TIM11_IRQHandler            0x080002e3   Thumb Code     0  startup_stm32f767xx.o(.text)
    TIM1_UP_TIM10_IRQHandler                 0x080002e3   Thumb Code     0  startup_stm32f767xx.o(.text)
    TIM2_IRQHandler                          0x080002e3   Thumb Code     0  startup_stm32f767xx.o(.text)
    TIM3_IRQHandler                          0x080002e3   Thumb Code     0  startup_stm32f767xx.o(.text)
    TIM4_IRQHandler                          0x080002e3   Thumb Code     0  startup_stm32f767xx.o(.text)
    TIM5_IRQHandler                          0x080002e3   Thumb Code     0  startup_stm32f767xx.o(.text)
    TIM6_DAC_IRQHandler                      0x080002e3   Thumb Code     0  startup_stm32f767xx.o(.text)
    TIM7_IRQHandler                          0x080002e3   Thumb Code     0  startup_stm32f767xx.o(.text)
    TIM8_BRK_TIM12_IRQHandler                0x080002e3   Thumb Code     0  startup_stm32f767xx.o(.text)
    TIM8_CC_IRQHandler                       0x080002e3   Thumb Code     0  startup_stm32f767xx.o(.text)
    TIM8_TRG_COM_TIM14_IRQHandler            0x080002e3   Thumb Code     0  startup_stm32f767xx.o(.text)
    TIM8_UP_TIM13_IRQHandler                 0x080002e3   Thumb Code     0  startup_stm32f767xx.o(.text)
    UART4_IRQHandler                         0x080002e3   Thumb Code     0  startup_stm32f767xx.o(.text)
    UART5_IRQHandler                         0x080002e3   Thumb Code     0  startup_stm32f767xx.o(.text)
    UART8_IRQHandler                         0x080002e3   Thumb Code     0  startup_stm32f767xx.o(.text)
    USART1_IRQHandler                        0x080002e3   Thumb Code     0  startup_stm32f767xx.o(.text)
    USART3_IRQHandler                        0x080002e3   Thumb Code     0  startup_stm32f767xx.o(.text)
    USART6_IRQHandler                        0x080002e3   Thumb Code     0  startup_stm32f767xx.o(.text)
    WWDG_IRQHandler                          0x080002e3   Thumb Code     0  startup_stm32f767xx.o(.text)
    __user_initial_stackheap                 0x080002e5   Thumb Code     0  startup_stm32f767xx.o(.text)
    CPU_IntDis                               0x08000311   Thumb Code     0  cpu_a.o(.text)
    CPU_IntEn                                0x08000315   Thumb Code     0  cpu_a.o(.text)
    CPU_SR_Save                              0x08000319   Thumb Code     0  cpu_a.o(.text)
    CPU_SR_Restore                           0x08000321   Thumb Code     0  cpu_a.o(.text)
    CPU_WaitForInt                           0x08000327   Thumb Code     0  cpu_a.o(.text)
    CPU_WaitForExcept                        0x0800032b   Thumb Code     0  cpu_a.o(.text)
    CPU_CntLeadZeros                         0x0800032f   Thumb Code     0  cpu_a.o(.text)
    CPU_CntTrailZeros                        0x08000335   Thumb Code     0  cpu_a.o(.text)
    CPU_RevBits                              0x0800033f   Thumb Code     0  cpu_a.o(.text)
    __use_no_semihosting                     0x08000345   Thumb Code     2  use_no_semi_2.o(.text)
    atoi                                     0x08000347   Thumb Code    26  atoi.o(.text)
    __aeabi_memcpy4                          0x08000361   Thumb Code     0  rt_memcpy_w.o(.text)
    __aeabi_memcpy8                          0x08000361   Thumb Code     0  rt_memcpy_w.o(.text)
    __rt_memcpy_w                            0x08000361   Thumb Code   100  rt_memcpy_w.o(.text)
    _memcpy_lastbytes_aligned                0x080003a9   Thumb Code     0  rt_memcpy_w.o(.text)
    __use_two_region_memory                  0x080003c5   Thumb Code     2  heapauxi.o(.text)
    __rt_heap_escrow$2region                 0x080003c7   Thumb Code     2  heapauxi.o(.text)
    __rt_heap_expand$2region                 0x080003c9   Thumb Code     2  heapauxi.o(.text)
    __I$use$semihosting                      0x080003cb   Thumb Code     0  use_no_semi.o(.text)
    __use_no_semihosting_swi                 0x080003cb   Thumb Code     2  use_no_semi.o(.text)
    __aeabi_errno_addr                       0x080003cd   Thumb Code     8  rt_errno_addr_intlibspace.o(.text)
    __errno$intlibspace                      0x080003cd   Thumb Code     0  rt_errno_addr_intlibspace.o(.text)
    __rt_errno_addr$intlibspace              0x080003cd   Thumb Code     0  rt_errno_addr_intlibspace.o(.text)
    strtol                                   0x080003d5   Thumb Code   112  strtol.o(.text)
    __user_libspace                          0x08000445   Thumb Code     8  libspace.o(.text)
    __user_perproc_libspace                  0x08000445   Thumb Code     0  libspace.o(.text)
    __user_perthread_libspace                0x08000445   Thumb Code     0  libspace.o(.text)
    __rt_ctype_table                         0x0800044d   Thumb Code    16  rt_ctype_table.o(.text)
    _strtoul                                 0x0800045d   Thumb Code   158  _strtoul.o(.text)
    __user_setup_stackheap                   0x080004fb   Thumb Code    74  sys_stackheap_outer.o(.text)
    __rt_locale                              0x08000545   Thumb Code     8  rt_locale_intlibspace.o(.text)
    _chval                                   0x0800054d   Thumb Code    28  _chval.o(.text)
    exit                                     0x08000569   Thumb Code    18  exit.o(.text)
    strcmp                                   0x0800057d   Thumb Code   104  strcmpv7m_pel.o(.text)
    OS_CPU_FP_Reg_Push                       0x080005e5   Thumb Code     0  os_cpu_a.o(CODE)
    OS_CPU_FP_Reg_Pop                        0x080005ff   Thumb Code     0  os_cpu_a.o(CODE)
    OSStartHighRdy                           0x08000611   Thumb Code     0  os_cpu_a.o(CODE)
    OSCtxSw                                  0x0800068d   Thumb Code     0  os_cpu_a.o(CODE)
    OSIntCtxSw                               0x08000697   Thumb Code     0  os_cpu_a.o(CODE)
    PendSV_Handler                           0x080006a1   Thumb Code     0  os_cpu_a.o(CODE)
    BSP_CPU_ClkFreq                          0x080006fd   Thumb Code    12  bsp.o(i.BSP_CPU_ClkFreq)
    BusFault_Handler                         0x08000709   Thumb Code     4  stm32f7xx_it.o(i.BusFault_Handler)
    CPU_Init                                 0x0800070d   Thumb Code    16  cpu_core.o(i.CPU_Init)
    CPU_IntDisMeasMaxCurGet                  0x080007bd   Thumb Code    40  cpu_core.o(i.CPU_IntDisMeasMaxCurGet)
    CPU_IntDisMeasMaxCurReset                0x080007e9   Thumb Code    40  cpu_core.o(i.CPU_IntDisMeasMaxCurReset)
    CPU_IntDisMeasMaxGet                     0x08000815   Thumb Code    40  cpu_core.o(i.CPU_IntDisMeasMaxGet)
    CPU_IntDisMeasStart                      0x08000841   Thumb Code    38  cpu_core.o(i.CPU_IntDisMeasStart)
    CPU_IntDisMeasStop                       0x08000875   Thumb Code    62  cpu_core.o(i.CPU_IntDisMeasStop)
    CPU_NameClr                              0x080008c9   Thumb Code    50  cpu_core.o(i.CPU_NameClr)
    CPU_TS_TmrFreqSet                        0x0800091d   Thumb Code     6  cpu_core.o(i.CPU_TS_TmrFreqSet)
    CPU_TS_TmrInit                           0x08000929   Thumb Code    44  bsp.o(i.CPU_TS_TmrInit)
    CPU_TS_TmrRd                             0x0800095d   Thumb Code     6  bsp.o(i.CPU_TS_TmrRd)
    Cache_Enable                             0x08000969   Thumb Code    96  sys.o(i.Cache_Enable)
    DebugMon_Handler                         0x080009d1   Thumb Code     2  stm32f7xx_it.o(i.DebugMon_Handler)
    FMC_NORSRAM_Extended_Timing_Init         0x080009d5   Thumb Code    66  stm32f7xx_ll_fmc.o(i.FMC_NORSRAM_Extended_Timing_Init)
    FMC_NORSRAM_Init                         0x08000a1d   Thumb Code   124  stm32f7xx_ll_fmc.o(i.FMC_NORSRAM_Init)
    FMC_NORSRAM_Timing_Init                  0x08000a9d   Thumb Code    94  stm32f7xx_ll_fmc.o(i.FMC_NORSRAM_Timing_Init)
    FMC_SDRAM_Init                           0x08000afb   Thumb Code   116  stm32f7xx_ll_fmc.o(i.FMC_SDRAM_Init)
    FMC_SDRAM_ProgramRefreshRate             0x08000b6f   Thumb Code    14  stm32f7xx_ll_fmc.o(i.FMC_SDRAM_ProgramRefreshRate)
    FMC_SDRAM_SendCommand                    0x08000b7d   Thumb Code    82  stm32f7xx_ll_fmc.o(i.FMC_SDRAM_SendCommand)
    FMC_SDRAM_Timing_Init                    0x08000bd1   Thumb Code   152  stm32f7xx_ll_fmc.o(i.FMC_SDRAM_Timing_Init)
    GPGGA_DAT                                0x08000c6d   Thumb Code    88  gps.o(i.GPGGA_DAT)
    GPGSA_DAT                                0x08000cd1   Thumb Code   182  gps.o(i.GPGSA_DAT)
    GPGSV_DAT                                0x08000d99   Thumb Code   532  gps.o(i.GPGSV_DAT)
    GPRMC_DAT                                0x08000fbd   Thumb Code   902  gps.o(i.GPRMC_DAT)
    GPS_task                                 0x0800139d   Thumb Code   298  main.o(i.GPS_task)
    HAL_GPIO_Init                            0x080014f5   Thumb Code   484  stm32f7xx_hal_gpio.o(i.HAL_GPIO_Init)
    HAL_GPIO_ReadPin                         0x0800170d   Thumb Code    16  stm32f7xx_hal_gpio.o(i.HAL_GPIO_ReadPin)
    HAL_GPIO_TogglePin                       0x0800171d   Thumb Code     8  stm32f7xx_hal_gpio.o(i.HAL_GPIO_TogglePin)
    HAL_GPIO_WritePin                        0x08001725   Thumb Code    12  stm32f7xx_hal_gpio.o(i.HAL_GPIO_WritePin)
    HAL_GetTick                              0x08001731   Thumb Code     6  stm32f7xx_hal.o(i.HAL_GetTick)
    HAL_IncTick                              0x0800173d   Thumb Code    12  stm32f7xx_hal.o(i.HAL_IncTick)
    HAL_Init                                 0x0800174d   Thumb Code    34  stm32f7xx_hal.o(i.HAL_Init)
    HAL_InitTick                             0x08001775   Thumb Code    36  stm32f7xx_hal.o(i.HAL_InitTick)
    HAL_LTDC_ConfigLayer                     0x0800179d   Thumb Code    94  stm32f7xx_hal_ltdc.o(i.HAL_LTDC_ConfigLayer)
    HAL_LTDC_Init                            0x080017fd   Thumb Code   290  stm32f7xx_hal_ltdc.o(i.HAL_LTDC_Init)
    HAL_LTDC_MspInit                         0x08001925   Thumb Code   294  ltdc.o(i.HAL_LTDC_MspInit)
    HAL_LTDC_SetWindowPosition               0x08001a65   Thumb Code   108  stm32f7xx_hal_ltdc.o(i.HAL_LTDC_SetWindowPosition)
    HAL_LTDC_SetWindowSize                   0x08001ad1   Thumb Code   116  stm32f7xx_hal_ltdc.o(i.HAL_LTDC_SetWindowSize)
    HAL_MPU_ConfigRegion                     0x08001b45   Thumb Code    88  stm32f7xx_hal_cortex.o(i.HAL_MPU_ConfigRegion)
    HAL_MspInit                              0x08001ba1   Thumb Code     2  stm32f7xx_hal.o(i.HAL_MspInit)
    HAL_NVIC_EnableIRQ                       0x08001ba3   Thumb Code    26  stm32f7xx_hal_cortex.o(i.HAL_NVIC_EnableIRQ)
    HAL_NVIC_SetPriority                     0x08001bbd   Thumb Code   124  stm32f7xx_hal_cortex.o(i.HAL_NVIC_SetPriority)
    HAL_NVIC_SetPriorityGrouping             0x08001c39   Thumb Code    32  stm32f7xx_hal_cortex.o(i.HAL_NVIC_SetPriorityGrouping)
    HAL_PWREx_EnableOverDrive                0x08001c61   Thumb Code   136  stm32f7xx_hal_pwr_ex.o(i.HAL_PWREx_EnableOverDrive)
    HAL_RCCEx_PeriphCLKConfig                0x08001cf1   Thumb Code  2428  stm32f7xx_hal_rcc_ex.o(i.HAL_RCCEx_PeriphCLKConfig)
    HAL_RCC_ClockConfig                      0x08002671   Thumb Code   420  stm32f7xx_hal_rcc.o(i.HAL_RCC_ClockConfig)
    HAL_RCC_GetHCLKFreq                      0x08002825   Thumb Code     6  stm32f7xx_hal_rcc.o(i.HAL_RCC_GetHCLKFreq)
    HAL_RCC_GetPCLK1Freq                     0x08002831   Thumb Code    36  stm32f7xx_hal_rcc.o(i.HAL_RCC_GetPCLK1Freq)
    HAL_RCC_GetPCLK2Freq                     0x0800285d   Thumb Code    36  stm32f7xx_hal_rcc.o(i.HAL_RCC_GetPCLK2Freq)
    HAL_RCC_GetSysClockFreq                  0x08002889   Thumb Code   168  stm32f7xx_hal_rcc.o(i.HAL_RCC_GetSysClockFreq)
    HAL_RCC_OscConfig                        0x0800293d   Thumb Code  1228  stm32f7xx_hal_rcc_ex.o(i.HAL_RCC_OscConfig)
    HAL_SDRAM_Init                           0x08002e0d   Thumb Code    64  stm32f7xx_hal_sdram.o(i.HAL_SDRAM_Init)
    HAL_SDRAM_MspInit                        0x08002e4d   Thumb Code   258  sdram.o(i.HAL_SDRAM_MspInit)
    HAL_SDRAM_ProgramRefreshRate             0x08002f69   Thumb Code    40  stm32f7xx_hal_sdram.o(i.HAL_SDRAM_ProgramRefreshRate)
    HAL_SDRAM_SendCommand                    0x08002f91   Thumb Code    58  stm32f7xx_hal_sdram.o(i.HAL_SDRAM_SendCommand)
    HAL_SRAM_Init                            0x08002fcb   Thumb Code    88  stm32f7xx_hal_sram.o(i.HAL_SRAM_Init)
    HAL_SRAM_MspInit                         0x08003025   Thumb Code   140  lcd.o(i.HAL_SRAM_MspInit)
    HAL_SYSTICK_CLKSourceConfig              0x080030bd   Thumb Code    40  stm32f7xx_hal_cortex.o(i.HAL_SYSTICK_CLKSourceConfig)
    HAL_SYSTICK_Config                       0x080030e5   Thumb Code    52  stm32f7xx_hal_cortex.o(i.HAL_SYSTICK_Config)
    HAL_UART_Init                            0x08003119   Thumb Code   120  stm32f7xx_hal_uart.o(i.HAL_UART_Init)
    HAL_UART_MspInit                         0x08003191   Thumb Code   294  usart.o(i.HAL_UART_MspInit)
    HAL_UART_Receive                         0x080032cd   Thumb Code   274  stm32f7xx_hal_uart.o(i.HAL_UART_Receive)
    HAL_UART_Transmit                        0x080033df   Thumb Code   198  stm32f7xx_hal_uart.o(i.HAL_UART_Transmit)
    HardFault_Handler                        0x080034a5   Thumb Code     4  stm32f7xx_it.o(i.HardFault_Handler)
    LCD_Clear                                0x080034a9   Thumb Code    58  lcd.o(i.LCD_Clear)
    LCD_Display_Dir                          0x080034f1   Thumb Code   376  lcd.o(i.LCD_Display_Dir)
    LCD_Fast_DrawPoint                       0x08003671   Thumb Code   278  lcd.o(i.LCD_Fast_DrawPoint)
    LCD_Init                                 0x08003795   Thumb Code  9318  lcd.o(i.LCD_Init)
    LCD_MPU_Config                           0x08005c09   Thumb Code   128  lcd.o(i.LCD_MPU_Config)
    LCD_Pow                                  0x08005c8d   Thumb Code    22  lcd.o(i.LCD_Pow)
    LCD_RD_DATA                              0x08005ca5   Thumb Code    14  lcd.o(i.LCD_RD_DATA)
    LCD_SSD_BackLightSet                     0x08005cb9   Thumb Code    72  lcd.o(i.LCD_SSD_BackLightSet)
    LCD_Scan_Dir                             0x08005d09   Thumb Code   624  lcd.o(i.LCD_Scan_Dir)
    LCD_SetCursor                            0x08005f7d   Thumb Code   306  lcd.o(i.LCD_SetCursor)
    LCD_ShowChar                             0x080060b5   Thumb Code   288  lcd.o(i.LCD_ShowChar)
    LCD_ShowNum                              0x080061f1   Thumb Code   148  lcd.o(i.LCD_ShowNum)
    LCD_ShowString                           0x08006285   Thumb Code   102  lcd.o(i.LCD_ShowString)
    LCD_ShowxNum                             0x080062eb   Thumb Code   190  lcd.o(i.LCD_ShowxNum)
    LCD_WR_DATA                              0x080063a9   Thumb Code    18  lcd.o(i.LCD_WR_DATA)
    LCD_WR_REG                               0x080063c1   Thumb Code    18  lcd.o(i.LCD_WR_REG)
    LCD_WriteRAM_Prepare                     0x080063d9   Thumb Code    10  lcd.o(i.LCD_WriteRAM_Prepare)
    LCD_WriteReg                             0x080063ed   Thumb Code    10  lcd.o(i.LCD_WriteReg)
    LED_Init                                 0x080063fd   Thumb Code    78  led.o(i.LED_Init)
    LTDC_Clear                               0x08006455   Thumb Code    32  ltdc.o(i.LTDC_Clear)
    LTDC_Clk_Set                             0x08006479   Thumb Code    38  ltdc.o(i.LTDC_Clk_Set)
    LTDC_Display_Dir                         0x080064a1   Thumb Code    40  ltdc.o(i.LTDC_Display_Dir)
    LTDC_Draw_Point                          0x080064cd   Thumb Code    70  ltdc.o(i.LTDC_Draw_Point)
    LTDC_Fill                                0x0800651d   Thumb Code   310  ltdc.o(i.LTDC_Fill)
    LTDC_Init                                0x08006665   Thumb Code   534  ltdc.o(i.LTDC_Init)
    LTDC_Layer_Parameter_Config              0x08006899   Thumb Code   114  ltdc.o(i.LTDC_Layer_Parameter_Config)
    LTDC_Layer_Window_Config                 0x08006915   Thumb Code    44  ltdc.o(i.LTDC_Layer_Window_Config)
    LTDC_PanelID_Read                        0x08006945   Thumb Code   188  ltdc.o(i.LTDC_PanelID_Read)
    LTDC_Select_Layer                        0x08006a0d   Thumb Code     6  ltdc.o(i.LTDC_Select_Layer)
    Mem_Clr                                  0x08006c2b   Thumb Code    18  lib_mem.o(i.Mem_Clr)
    Mem_Set                                  0x08006c3d   Thumb Code    84  lib_mem.o(i.Mem_Set)
    NMI_Handler                              0x08006c91   Thumb Code     2  stm32f7xx_it.o(i.NMI_Handler)
    OSCfg_Init                               0x08006ccd   Thumb Code     2  os_cfg_app.o(i.OSCfg_Init)
    OSIdleTaskHook                           0x08006cd1   Thumb Code    16  os_cpu_c.o(i.OSIdleTaskHook)
    OSInit                                   0x08006ce5   Thumb Code   258  os_core.o(i.OSInit)
    OSInitHook                               0x08006e31   Thumb Code    28  os_cpu_c.o(i.OSInitHook)
    OSIntEnter                               0x08006e59   Thumb Code    34  os_core.o(i.OSIntEnter)
    OSIntExit                                0x08006e85   Thumb Code   188  os_core.o(i.OSIntExit)
    OSMutexCreate                            0x08006f61   Thumb Code    98  os_mutex.o(i.OSMutexCreate)
    OSMutexPend                              0x08006fcd   Thumb Code   480  os_mutex.o(i.OSMutexPend)
    OSMutexPost                              0x080071b9   Thumb Code   366  os_mutex.o(i.OSMutexPost)
    OSSched                                  0x08007335   Thumb Code   134  os_core.o(i.OSSched)
    OSSchedLock                              0x080073d9   Thumb Code    92  os_core.o(i.OSSchedLock)
    OSSchedUnlock                            0x0800743d   Thumb Code   128  os_core.o(i.OSSchedUnlock)
    OSSemCreate                              0x080074c5   Thumb Code    96  os_sem.o(i.OSSemCreate)
    OSSemPend                                0x0800752d   Thumb Code   378  os_sem.o(i.OSSemPend)
    OSSemPost                                0x080076b5   Thumb Code    54  os_sem.o(i.OSSemPost)
    OSStart                                  0x080076f1   Thumb Code    78  os_core.o(i.OSStart)
    OSStatReset                              0x08007759   Thumb Code   294  os_stat.o(i.OSStatReset)
    OSStatTaskCPUUsageInit                   0x080078a1   Thumb Code   228  os_stat.o(i.OSStatTaskCPUUsageInit)
    OSStatTaskHook                           0x080079a1   Thumb Code    16  os_cpu_c.o(i.OSStatTaskHook)
    OSTaskCreate                             0x080079b5   Thumb Code   312  os_task.o(i.OSTaskCreate)
    OSTaskCreateHook                         0x08007af9   Thumb Code    20  os_cpu_c.o(i.OSTaskCreateHook)
    OSTaskDel                                0x08007b11   Thumb Code   400  os_task.o(i.OSTaskDel)
    OSTaskDelHook                            0x08007cad   Thumb Code    20  os_cpu_c.o(i.OSTaskDelHook)
    OSTaskResume                             0x08007cc5   Thumb Code    54  os_task.o(i.OSTaskResume)
    OSTaskReturnHook                         0x08007cfd   Thumb Code    20  os_cpu_c.o(i.OSTaskReturnHook)
    OSTaskSemPend                            0x08007d15   Thumb Code   448  os_task.o(i.OSTaskSemPend)
    OSTaskSemPost                            0x08007edd   Thumb Code    36  os_task.o(i.OSTaskSemPost)
    OSTaskStkChk                             0x08007f01   Thumb Code   184  os_task.o(i.OSTaskStkChk)
    OSTaskStkInit                            0x08007fbd   Thumb Code   600  os_cpu_c.o(i.OSTaskStkInit)
    OSTaskSuspend                            0x08008281   Thumb Code    32  os_task.o(i.OSTaskSuspend)
    OSTaskSwHook                             0x080082a5   Thumb Code   160  os_cpu_c.o(i.OSTaskSwHook)
    OSTimeDly                                0x08008351   Thumb Code   168  os_time.o(i.OSTimeDly)
    OSTimeDlyHMSM                            0x08008401   Thumb Code   262  os_time.o(i.OSTimeDlyHMSM)
    OSTimeTick                               0x08008515   Thumb Code    50  os_time.o(i.OSTimeTick)
    OSTimeTickHook                           0x08008559   Thumb Code    16  os_cpu_c.o(i.OSTimeTickHook)
    OS_Dbg_Init                              0x0800856d   Thumb Code   146  os_dbg.o(i.OS_Dbg_Init)
    OS_FlagInit                              0x08008715   Thumb Code    14  os_flag.o(i.OS_FlagInit)
    OS_IdleTask                              0x0800872d   Thumb Code    66  os_core.o(i.OS_IdleTask)
    OS_IdleTaskInit                          0x08008779   Thumb Code    66  os_core.o(i.OS_IdleTaskInit)
    OS_MemInit                               0x080087e9   Thumb Code    14  os_mem.o(i.OS_MemInit)
    OS_MsgPoolInit                           0x08008801   Thumb Code    80  os_msg.o(i.OS_MsgPoolInit)
    OS_MsgQFreeAll                           0x0800885d   Thumb Code    62  os_msg.o(i.OS_MsgQFreeAll)
    OS_MsgQInit                              0x080088a1   Thumb Code    14  os_msg.o(i.OS_MsgQInit)
    OS_MutexDbgListAdd                       0x080088b1   Thumb Code    38  os_mutex.o(i.OS_MutexDbgListAdd)
    OS_MutexGrpAdd                           0x080088e1   Thumb Code     8  os_mutex.o(i.OS_MutexGrpAdd)
    OS_MutexGrpPostAll                       0x080088e9   Thumb Code    96  os_mutex.o(i.OS_MutexGrpPostAll)
    OS_MutexGrpPrioFindHighest               0x08008949   Thumb Code    44  os_mutex.o(i.OS_MutexGrpPrioFindHighest)
    OS_MutexGrpRemove                        0x08008975   Thumb Code    28  os_mutex.o(i.OS_MutexGrpRemove)
    OS_MutexInit                             0x08008991   Thumb Code    14  os_mutex.o(i.OS_MutexInit)
    OS_Pend                                  0x080089a9   Thumb Code   100  os_core.o(i.OS_Pend)
    OS_PendDataInit                          0x08008a11   Thumb Code    40  os_core.o(i.OS_PendDataInit)
    OS_PendDbgNameAdd                        0x08008a39   Thumb Code    66  os_core.o(i.OS_PendDbgNameAdd)
    OS_PendDbgNameRemove                     0x08008a95   Thumb Code    30  os_core.o(i.OS_PendDbgNameRemove)
    OS_PendListChangePrio                    0x08008ab9   Thumb Code    58  os_core.o(i.OS_PendListChangePrio)
    OS_PendListInit                          0x08008af3   Thumb Code    10  os_core.o(i.OS_PendListInit)
    OS_PendListInsertPrio                    0x08008afd   Thumb Code   102  os_core.o(i.OS_PendListInsertPrio)
    OS_PendListRemove                        0x08008b63   Thumb Code    52  os_core.o(i.OS_PendListRemove)
    OS_PendListRemove1                       0x08008b97   Thumb Code    66  os_core.o(i.OS_PendListRemove1)
    OS_Post                                  0x08008bd9   Thumb Code   214  os_core.o(i.OS_Post)
    OS_Post1                                 0x08008caf   Thumb Code    44  os_core.o(i.OS_Post1)
    OS_PrioGetHighest                        0x08008cdd   Thumb Code    36  os_prio.o(i.OS_PrioGetHighest)
    OS_PrioInit                              0x08008d05   Thumb Code    20  os_prio.o(i.OS_PrioInit)
    OS_PrioInsert                            0x08008d1d   Thumb Code    32  os_prio.o(i.OS_PrioInsert)
    OS_PrioRemove                            0x08008d41   Thumb Code    32  os_prio.o(i.OS_PrioRemove)
    OS_QInit                                 0x08008d65   Thumb Code    14  os_q.o(i.OS_QInit)
    OS_RdyListInit                           0x08008d7d   Thumb Code    32  os_core.o(i.OS_RdyListInit)
    OS_RdyListInsert                         0x08008da1   Thumb Code    40  os_core.o(i.OS_RdyListInsert)
    OS_RdyListInsertHead                     0x08008dcd   Thumb Code    58  os_core.o(i.OS_RdyListInsertHead)
    OS_RdyListInsertTail                     0x08008e0d   Thumb Code    56  os_core.o(i.OS_RdyListInsertTail)
    OS_RdyListRemove                         0x08008e49   Thumb Code    86  os_core.o(i.OS_RdyListRemove)
    OS_SemDbgListAdd                         0x08008ea5   Thumb Code    38  os_sem.o(i.OS_SemDbgListAdd)
    OS_SemInit                               0x08008ed5   Thumb Code    14  os_sem.o(i.OS_SemInit)
    OS_SemPost                               0x08008eed   Thumb Code   318  os_sem.o(i.OS_SemPost)
    OS_StatTask                              0x0800902d   Thumb Code   738  os_stat.o(i.OS_StatTask)
    OS_StatTaskInit                          0x08009351   Thumb Code   136  os_stat.o(i.OS_StatTaskInit)
    OS_TaskBlock                             0x0800941d   Thumb Code    40  os_core.o(i.OS_TaskBlock)
    OS_TaskChangePrio                        0x08009449   Thumb Code   232  os_task.o(i.OS_TaskChangePrio)
    OS_TaskDbgListAdd                        0x08009535   Thumb Code    42  os_task.o(i.OS_TaskDbgListAdd)
    OS_TaskDbgListRemove                     0x08009565   Thumb Code    64  os_task.o(i.OS_TaskDbgListRemove)
    OS_TaskInit                              0x080095a9   Thumb Code    18  os_task.o(i.OS_TaskInit)
    OS_TaskInitTCB                           0x080095c9   Thumb Code   182  os_task.o(i.OS_TaskInitTCB)
    OS_TaskResume                            0x0800968d   Thumb Code   284  os_task.o(i.OS_TaskResume)
    OS_TaskReturn                            0x080097a9   Thumb Code    20  os_task.o(i.OS_TaskReturn)
    OS_TaskSemPost                           0x080097c1   Thumb Code   492  os_task.o(i.OS_TaskSemPost)
    OS_TaskSuspend                           0x080099b1   Thumb Code   304  os_task.o(i.OS_TaskSuspend)
    OS_TickListInsert                        0x08009ae9   Thumb Code   134  os_tick.o(i.OS_TickListInsert)
    OS_TickListInsertDly                     0x08009b71   Thumb Code   180  os_tick.o(i.OS_TickListInsertDly)
    OS_TickListRemove                        0x08009c2d   Thumb Code    88  os_tick.o(i.OS_TickListRemove)
    OS_TickTask                              0x08009e41   Thumb Code    98  os_tick.o(i.OS_TickTask)
    OS_TickTaskInit                          0x08009ead   Thumb Code   140  os_tick.o(i.OS_TickTaskInit)
    OS_TmrInit                               0x08009f75   Thumb Code   200  os_tmr.o(i.OS_TmrInit)
    OS_TmrTask                               0x0800a0c1   Thumb Code   134  os_tmr.o(i.OS_TmrTask)
    OS_TmrUnlink                             0x0800a155   Thumb Code    58  os_tmr.o(i.OS_TmrUnlink)
    SDRAM_Init                               0x0800a249   Thumb Code   162  sdram.o(i.SDRAM_Init)
    SDRAM_Send_Cmd                           0x0800a2f5   Thumb Code    68  sdram.o(i.SDRAM_Send_Cmd)
    SVC_Handler                              0x0800a33d   Thumb Code     2  stm32f7xx_it.o(i.SVC_Handler)
    Stm32_Clock_Init                         0x0800a341   Thumb Code   170  sys.o(i.Stm32_Clock_Init)
    SysTick_Handler                          0x0800a3f5   Thumb Code    28  delay.o(i.SysTick_Handler)
    SystemInit                               0x0800a415   Thumb Code    82  system_stm32f7xx.o(i.SystemInit)
    UART7_IRQHandler                         0x0800a479   Thumb Code   114  usart.o(i.UART7_IRQHandler)
    UART_AdvFeatureConfig                    0x0800a501   Thumb Code   234  stm32f7xx_hal_uart.o(i.UART_AdvFeatureConfig)
    UART_CheckIdleState                      0x0800a5eb   Thumb Code   116  stm32f7xx_hal_uart.o(i.UART_CheckIdleState)
    UART_SetConfig                           0x0800a661   Thumb Code   858  stm32f7xx_hal_uart.o(i.UART_SetConfig)
    UART_WaitOnFlagUntilTimeout              0x0800a9ed   Thumb Code   108  stm32f7xx_hal_uart.o(i.UART_WaitOnFlagUntilTimeout)
    USART2_IRQHandler                        0x0800aa59   Thumb Code   178  usart.o(i.USART2_IRQHandler)
    UsageFault_Handler                       0x0800ab29   Thumb Code     4  stm32f7xx_it.o(i.UsageFault_Handler)
    _sys_exit                                0x0800ab2d   Thumb Code     4  usart.o(i._sys_exit)
    delay_init                               0x0800ab31   Thumb Code    74  delay.o(i.delay_init)
    delay_ms                                 0x0800ab8d   Thumb Code    66  delay.o(i.delay_ms)
    delay_osschedlock                        0x0800abdd   Thumb Code    10  delay.o(i.delay_osschedlock)
    delay_osschedunlock                      0x0800abe7   Thumb Code    10  delay.o(i.delay_osschedunlock)
    delay_ostimedly                          0x0800abf1   Thumb Code    16  delay.o(i.delay_ostimedly)
    delay_us                                 0x0800ac01   Thumb Code    84  delay.o(i.delay_us)
    main                                     0x0800ac59   Thumb Code   200  main.o(i.main)
    start_task                               0x0800ad69   Thumb Code   178  main.o(i.start_task)
    task2_task                               0x0800ae59   Thumb Code    54  main.o(i.task2_task)
    uart2_init                               0x0800ae99   Thumb Code    34  usart.o(i.uart2_init)
    uart7_init                               0x0800aec5   Thumb Code    34  usart.o(i.uart7_init)
    uart_init                                0x0800aef1   Thumb Code    20  usart.o(i.uart_init)
    _get_lc_ctype                            0x0800af05   Thumb Code    44  lc_ctype_c.o(locale$$code)
    _fp_init                                 0x0800af31   Thumb Code    10  fpinit.o(x$fpl$fpinit)
    __fplib_config_fpu_vfp                   0x0800af39   Thumb Code     0  fpinit.o(x$fpl$fpinit)
    __fplib_config_pureend_doubles           0x0800af39   Thumb Code     0  fpinit.o(x$fpl$fpinit)
    AHBPrescTable                            0x0800af3a   Data          16  system_stm32f7xx.o(.constdata)
    APBPrescTable                            0x0800af4a   Data           8  system_stm32f7xx.o(.constdata)
    asc2_1206                                0x0800af52   Data        1140  lcd.o(.constdata)
    asc2_1608                                0x0800b3c6   Data        1520  lcd.o(.constdata)
    asc2_2412                                0x0800b9b6   Data        3420  lcd.o(.constdata)
    asc2_3216                                0x0800c712   Data       12160  lcd.o(.constdata)
    OSCfg_IdleTaskStkBasePtr                 0x0800f694   Data           4  os_cfg_app.o(.constdata)
    OSCfg_IdleTaskStkLimit                   0x0800f698   Data           4  os_cfg_app.o(.constdata)
    OSCfg_IdleTaskStkSize                    0x0800f69c   Data           4  os_cfg_app.o(.constdata)
    OSCfg_IdleTaskStkSizeRAM                 0x0800f6a0   Data           4  os_cfg_app.o(.constdata)
    OSCfg_IntQBasePtr                        0x0800f6a4   Data           4  os_cfg_app.o(.constdata)
    OSCfg_IntQSize                           0x0800f6a8   Data           2  os_cfg_app.o(.constdata)
    OSCfg_IntQSizeRAM                        0x0800f6ac   Data           4  os_cfg_app.o(.constdata)
    OSCfg_IntQTaskStkBasePtr                 0x0800f6b0   Data           4  os_cfg_app.o(.constdata)
    OSCfg_IntQTaskStkLimit                   0x0800f6b4   Data           4  os_cfg_app.o(.constdata)
    OSCfg_IntQTaskStkSize                    0x0800f6b8   Data           4  os_cfg_app.o(.constdata)
    OSCfg_IntQTaskStkSizeRAM                 0x0800f6bc   Data           4  os_cfg_app.o(.constdata)
    OSCfg_ISRStkBasePtr                      0x0800f6c0   Data           4  os_cfg_app.o(.constdata)
    OSCfg_ISRStkSize                         0x0800f6c4   Data           4  os_cfg_app.o(.constdata)
    OSCfg_ISRStkSizeRAM                      0x0800f6c8   Data           4  os_cfg_app.o(.constdata)
    OSCfg_MsgPoolSize                        0x0800f6cc   Data           2  os_cfg_app.o(.constdata)
    OSCfg_MsgPoolSizeRAM                     0x0800f6d0   Data           4  os_cfg_app.o(.constdata)
    OSCfg_MsgPoolBasePtr                     0x0800f6d4   Data           4  os_cfg_app.o(.constdata)
    OSCfg_StatTaskPrio                       0x0800f6d8   Data           1  os_cfg_app.o(.constdata)
    OSCfg_StatTaskRate_Hz                    0x0800f6dc   Data           4  os_cfg_app.o(.constdata)
    OSCfg_StatTaskStkBasePtr                 0x0800f6e0   Data           4  os_cfg_app.o(.constdata)
    OSCfg_StatTaskStkLimit                   0x0800f6e4   Data           4  os_cfg_app.o(.constdata)
    OSCfg_StatTaskStkSize                    0x0800f6e8   Data           4  os_cfg_app.o(.constdata)
    OSCfg_StatTaskStkSizeRAM                 0x0800f6ec   Data           4  os_cfg_app.o(.constdata)
    OSCfg_StkSizeMin                         0x0800f6f0   Data           4  os_cfg_app.o(.constdata)
    OSCfg_TickRate_Hz                        0x0800f6f4   Data           4  os_cfg_app.o(.constdata)
    OSCfg_TickTaskPrio                       0x0800f6f8   Data           1  os_cfg_app.o(.constdata)
    OSCfg_TickTaskStkBasePtr                 0x0800f6fc   Data           4  os_cfg_app.o(.constdata)
    OSCfg_TickTaskStkLimit                   0x0800f700   Data           4  os_cfg_app.o(.constdata)
    OSCfg_TickTaskStkSize                    0x0800f704   Data           4  os_cfg_app.o(.constdata)
    OSCfg_TickTaskStkSizeRAM                 0x0800f708   Data           4  os_cfg_app.o(.constdata)
    OSCfg_TmrTaskPrio                        0x0800f70c   Data           1  os_cfg_app.o(.constdata)
    OSCfg_TmrTaskRate_Hz                     0x0800f710   Data           4  os_cfg_app.o(.constdata)
    OSCfg_TmrTaskStkBasePtr                  0x0800f714   Data           4  os_cfg_app.o(.constdata)
    OSCfg_TmrTaskStkLimit                    0x0800f718   Data           4  os_cfg_app.o(.constdata)
    OSCfg_TmrTaskStkSize                     0x0800f71c   Data           4  os_cfg_app.o(.constdata)
    OSCfg_TmrTaskStkSizeRAM                  0x0800f720   Data           4  os_cfg_app.o(.constdata)
    OSCfg_DataSizeRAM                        0x0800f724   Data           4  os_cfg_app.o(.constdata)
    OSDbg_DbgEn                              0x0800f728   Data           1  os_dbg.o(.constdata)
    OSDbg_ArgChkEn                           0x0800f729   Data           1  os_dbg.o(.constdata)
    OSDbg_AppHooksEn                         0x0800f72a   Data           1  os_dbg.o(.constdata)
    OSDbg_EndiannessTest                     0x0800f72c   Data           4  os_dbg.o(.constdata)
    OSDbg_CalledFromISRChkEn                 0x0800f730   Data           1  os_dbg.o(.constdata)
    OSDbg_FlagEn                             0x0800f731   Data           1  os_dbg.o(.constdata)
    OSDbg_FlagGrp                            0x0800f734   Data          40  os_dbg.o(.constdata)
    OSDbg_FlagDelEn                          0x0800f75c   Data           1  os_dbg.o(.constdata)
    OSDbg_FlagModeClrEn                      0x0800f75d   Data           1  os_dbg.o(.constdata)
    OSDbg_FlagPendAbortEn                    0x0800f75e   Data           1  os_dbg.o(.constdata)
    OSDbg_FlagGrpSize                        0x0800f760   Data           2  os_dbg.o(.constdata)
    OSDbg_FlagWidth                          0x0800f762   Data           2  os_dbg.o(.constdata)
    OSDbg_IntQ                               0x0800f764   Data           2  os_dbg.o(.constdata)
    OSDbg_ISRPostDeferredEn                  0x0800f766   Data           1  os_dbg.o(.constdata)
    OSDbg_Mem                                0x0800f768   Data          32  os_dbg.o(.constdata)
    OSDbg_MemEn                              0x0800f788   Data           1  os_dbg.o(.constdata)
    OSDbg_MemSize                            0x0800f78a   Data           2  os_dbg.o(.constdata)
    OSDbg_MsgEn                              0x0800f78c   Data           1  os_dbg.o(.constdata)
    OSDbg_MsgSize                            0x0800f78e   Data           2  os_dbg.o(.constdata)
    OSDbg_MsgPoolSize                        0x0800f790   Data           2  os_dbg.o(.constdata)
    OSDbg_MsgQSize                           0x0800f792   Data           2  os_dbg.o(.constdata)
    OSDbg_Mutex                              0x0800f794   Data          48  os_dbg.o(.constdata)
    OSDbg_MutexEn                            0x0800f7c4   Data           1  os_dbg.o(.constdata)
    OSDbg_MutexDelEn                         0x0800f7c5   Data           1  os_dbg.o(.constdata)
    OSDbg_MutexPendAbortEn                   0x0800f7c6   Data           1  os_dbg.o(.constdata)
    OSDbg_MutexSize                          0x0800f7c8   Data           2  os_dbg.o(.constdata)
    OSDbg_ObjTypeChkEn                       0x0800f7ca   Data           1  os_dbg.o(.constdata)
    OSDbg_PendMultiEn                        0x0800f7cb   Data           1  os_dbg.o(.constdata)
    OSDbg_PendDataSize                       0x0800f7cc   Data           2  os_dbg.o(.constdata)
    OSDbg_PendListSize                       0x0800f7ce   Data           2  os_dbg.o(.constdata)
    OSDbg_PendObjSize                        0x0800f7d0   Data           2  os_dbg.o(.constdata)
    OSDbg_PrioMax                            0x0800f7d2   Data           2  os_dbg.o(.constdata)
    OSDbg_PrioTblSize                        0x0800f7d4   Data           2  os_dbg.o(.constdata)
    OSDbg_PtrSize                            0x0800f7d6   Data           2  os_dbg.o(.constdata)
    OSDbg_Q                                  0x0800f7d8   Data          48  os_dbg.o(.constdata)
    OSDbg_QEn                                0x0800f808   Data           1  os_dbg.o(.constdata)
    OSDbg_QDelEn                             0x0800f809   Data           1  os_dbg.o(.constdata)
    OSDbg_QFlushEn                           0x0800f80a   Data           1  os_dbg.o(.constdata)
    OSDbg_QPendAbortEn                       0x0800f80b   Data           1  os_dbg.o(.constdata)
    OSDbg_QSize                              0x0800f80c   Data           2  os_dbg.o(.constdata)
    OSDbg_SchedRoundRobinEn                  0x0800f80e   Data           1  os_dbg.o(.constdata)
    OSDbg_Sem                                0x0800f810   Data          40  os_dbg.o(.constdata)
    OSDbg_SemEn                              0x0800f838   Data           1  os_dbg.o(.constdata)
    OSDbg_SemDelEn                           0x0800f839   Data           1  os_dbg.o(.constdata)
    OSDbg_SemPendAbortEn                     0x0800f83a   Data           1  os_dbg.o(.constdata)
    OSDbg_SemSetEn                           0x0800f83b   Data           1  os_dbg.o(.constdata)
    OSDbg_SemSize                            0x0800f83c   Data           2  os_dbg.o(.constdata)
    OSDbg_RdyList                            0x0800f83e   Data           2  os_dbg.o(.constdata)
    OSDbg_RdyListSize                        0x0800f840   Data           4  os_dbg.o(.constdata)
    OSDbg_StkWidth                           0x0800f844   Data           1  os_dbg.o(.constdata)
    OSDbg_StatTaskEn                         0x0800f845   Data           1  os_dbg.o(.constdata)
    OSDbg_StatTaskStkChkEn                   0x0800f846   Data           1  os_dbg.o(.constdata)
    OSDbg_TaskChangePrioEn                   0x0800f847   Data           1  os_dbg.o(.constdata)
    OSDbg_TaskDelEn                          0x0800f848   Data           1  os_dbg.o(.constdata)
    OSDbg_TaskQEn                            0x0800f849   Data           1  os_dbg.o(.constdata)
    OSDbg_TaskQPendAbortEn                   0x0800f84a   Data           1  os_dbg.o(.constdata)
    OSDbg_TaskProfileEn                      0x0800f84b   Data           1  os_dbg.o(.constdata)
    OSDbg_TaskRegTblSize                     0x0800f84c   Data           2  os_dbg.o(.constdata)
    OSDbg_TaskSemPendAbortEn                 0x0800f84e   Data           1  os_dbg.o(.constdata)
    OSDbg_TaskSuspendEn                      0x0800f84f   Data           1  os_dbg.o(.constdata)
    OSDbg_TCBSize                            0x0800f850   Data           2  os_dbg.o(.constdata)
    OSDbg_TickListSize                       0x0800f852   Data           2  os_dbg.o(.constdata)
    OSDbg_TimeDlyHMSMEn                      0x0800f854   Data           1  os_dbg.o(.constdata)
    OSDbg_TimeDlyResumeEn                    0x0800f855   Data           1  os_dbg.o(.constdata)
    OSDbg_TLS_TblSize                        0x0800f856   Data           2  os_dbg.o(.constdata)
    OSDbg_Tmr                                0x0800f858   Data          48  os_dbg.o(.constdata)
    OSDbg_TmrEn                              0x0800f888   Data           1  os_dbg.o(.constdata)
    OSDbg_TmrDelEn                           0x0800f889   Data           1  os_dbg.o(.constdata)
    OSDbg_TmrSize                            0x0800f88a   Data           2  os_dbg.o(.constdata)
    OSDbg_VersionNbr                         0x0800f88c   Data           2  os_dbg.o(.constdata)
    OSDbg_DataSize                           0x0800f890   Data           4  os_dbg.o(.constdata)
    Region$$Table$$Base                      0x0800f894   Number         0  anon$$obj.o(Region$$Table)
    Region$$Table$$Limit                     0x0800f8b4   Number         0  anon$$obj.o(Region$$Table)
    __ctype                                  0x0800f8c1   Data           0  lc_ctype_c.o(locale$$data)
    SystemCoreClock                          0x20020000   Data           4  system_stm32f7xx.o(.data)
    uwTick                                   0x20020004   Data           4  stm32f7xx_hal.o(.data)
    Receive_cnt                              0x20020010   Data           1  usart.o(.data)
    TxCounter4                               0x20020011   Data           1  usart.o(.data)
    RxCounter4                               0x20020012   Data           1  usart.o(.data)
    Rec_Len                                  0x20020013   Data           1  usart.o(.data)
    rec_f                                    0x20020014   Data           1  usart.o(.data)
    tx_flag                                  0x20020015   Data           1  usart.o(.data)
    flash_led                                0x20020016   Data           1  usart.o(.data)
    __stdout                                 0x20020018   Data           4  usart.o(.data)
    POINT_COLOR                              0x2002001c   Data           4  lcd.o(.data)
    BACK_COLOR                               0x20020020   Data           4  lcd.o(.data)
    ltdc_framebuf                            0x20020024   Data           8  ltdc.o(.data)
    Hour                                     0x2002002c   Data           1  gps.o(.data)
    Min                                      0x2002002d   Data           1  gps.o(.data)
    Sec                                      0x2002002e   Data           1  gps.o(.data)
    Day                                      0x2002002f   Data           1  gps.o(.data)
    Mouth                                    0x20020030   Data           1  gps.o(.data)
    Year                                     0x20020031   Data           1  gps.o(.data)
    GPS_VA                                   0x20020032   Data           1  gps.o(.data)
    weidu_dir                                0x20020033   Data           1  gps.o(.data)
    jingdu_dir                               0x20020034   Data           1  gps.o(.data)
    star_num                                 0x20020035   Data           1  gps.o(.data)
    star_num_t                               0x20020036   Data           1  gps.o(.data)
    GPS_3D                                   0x20020037   Data           1  gps.o(.data)
    jingdu                                   0x20020038   Data           4  gps.o(.data)
    weidu                                    0x2002003c   Data           4  gps.o(.data)
    GPS_ATLI                                 0x20020040   Data           2  gps.o(.data)
    CPU_TS_TmrFreq_Hz                        0x20020044   Data           4  cpu_core.o(.data)
    CPU_IntDisMeasCtr                        0x20020048   Data           2  cpu_core.o(.data)
    CPU_IntDisNestCtr                        0x2002004a   Data           2  cpu_core.o(.data)
    CPU_IntDisMeasStart_cnts                 0x2002004c   Data           4  cpu_core.o(.data)
    CPU_IntDisMeasStop_cnts                  0x20020050   Data           4  cpu_core.o(.data)
    CPU_IntDisMeasOvrhd_cnts                 0x20020054   Data           4  cpu_core.o(.data)
    CPU_IntDisMeasMaxCur_cnts                0x20020058   Data           4  cpu_core.o(.data)
    CPU_IntDisMeasMax_cnts                   0x2002005c   Data           4  cpu_core.o(.data)
    OSPrioTbl                                0x20020060   Data           8  os_prio.o(.data)
    OS_AppTaskCreateHookPtr                  0x20020068   Data           4  os_var.o(.data)
    OS_AppTaskDelHookPtr                     0x2002006c   Data           4  os_var.o(.data)
    OS_AppTaskReturnHookPtr                  0x20020070   Data           4  os_var.o(.data)
    OS_AppIdleTaskHookPtr                    0x20020074   Data           4  os_var.o(.data)
    OS_AppStatTaskHookPtr                    0x20020078   Data           4  os_var.o(.data)
    OS_AppTaskSwHookPtr                      0x2002007c   Data           4  os_var.o(.data)
    OS_AppTimeTickHookPtr                    0x20020080   Data           4  os_var.o(.data)
    OSIdleTaskCtr                            0x20020084   Data           4  os_var.o(.data)
    OSIntNestingCtr                          0x20020088   Data           1  os_var.o(.data)
    OSIntDisTimeMax                          0x2002008c   Data           4  os_var.o(.data)
    OSRunning                                0x20020090   Data           1  os_var.o(.data)
    OSFlagDbgListPtr                         0x20020094   Data           4  os_var.o(.data)
    OSFlagQty                                0x20020098   Data           2  os_var.o(.data)
    OSMemDbgListPtr                          0x2002009c   Data           4  os_var.o(.data)
    OSMemQty                                 0x200200a0   Data           2  os_var.o(.data)
    OSMutexDbgListPtr                        0x200200a4   Data           4  os_var.o(.data)
    OSMutexQty                               0x200200a8   Data           2  os_var.o(.data)
    OSPrioCur                                0x200200aa   Data           1  os_var.o(.data)
    OSPrioHighRdy                            0x200200ab   Data           1  os_var.o(.data)
    OSPrioSaved                              0x200200ac   Data           1  os_var.o(.data)
    OSQDbgListPtr                            0x200200b0   Data           4  os_var.o(.data)
    OSQQty                                   0x200200b4   Data           2  os_var.o(.data)
    OSSchedLockNestingCtr                    0x200200b6   Data           1  os_var.o(.data)
    OSSemDbgListPtr                          0x200200b8   Data           4  os_var.o(.data)
    OSSemQty                                 0x200200bc   Data           2  os_var.o(.data)
    OSStatResetFlag                          0x200200be   Data           1  os_var.o(.data)
    OSStatTaskCPUUsage                       0x200200c0   Data           2  os_var.o(.data)
    OSStatTaskCPUUsageMax                    0x200200c2   Data           2  os_var.o(.data)
    OSStatTaskCtr                            0x200200c4   Data           4  os_var.o(.data)
    OSStatTaskCtrMax                         0x200200c8   Data           4  os_var.o(.data)
    OSStatTaskCtrRun                         0x200200cc   Data           4  os_var.o(.data)
    OSStatTaskRdy                            0x200200d0   Data           1  os_var.o(.data)
    OSStatTaskTimeMax                        0x200200d4   Data           4  os_var.o(.data)
    OSTaskCtxSwCtr                           0x200200d8   Data           4  os_var.o(.data)
    OSTaskDbgListPtr                         0x200200dc   Data           4  os_var.o(.data)
    OSTaskQty                                0x200200e0   Data           2  os_var.o(.data)
    OSTaskRegNextAvailID                     0x200200e2   Data           1  os_var.o(.data)
    OSTickCtr                                0x200200e4   Data           4  os_var.o(.data)
    OSTickTaskTimeMax                        0x200200e8   Data           4  os_var.o(.data)
    OSTickListDly                            0x200200ec   Data           8  os_var.o(.data)
    OSTickListTimeout                        0x200200f4   Data           8  os_var.o(.data)
    OSTmrDbgListPtr                          0x200200fc   Data           4  os_var.o(.data)
    OSTmrListEntries                         0x20020100   Data           2  os_var.o(.data)
    OSTmrListPtr                             0x20020104   Data           4  os_var.o(.data)
    OSTmrQty                                 0x20020108   Data           2  os_var.o(.data)
    OSTmrTaskTimeMax                         0x2002010c   Data           4  os_var.o(.data)
    OSTmrTickCtr                             0x20020110   Data           4  os_var.o(.data)
    OSTmrUpdateCnt                           0x20020114   Data           4  os_var.o(.data)
    OSTmrUpdateCtr                           0x20020118   Data           4  os_var.o(.data)
    OSTCBCurPtr                              0x2002011c   Data           4  os_var.o(.data)
    OSTCBHighRdyPtr                          0x20020120   Data           4  os_var.o(.data)
    OS_CPU_ExceptStkBase                     0x20020124   Data           4  os_cpu_c.o(.data)
    StartTaskTCB                             0x20020128   Data         192  main.o(.bss)
    START_TASK_STK                           0x200201e8   Data         512  main.o(.bss)
    GPS_TaskTCB                              0x200203e8   Data         192  main.o(.bss)
    GPS_TASK_STK                             0x200204a8   Data         512  main.o(.bss)
    Task2_TaskTCB                            0x200206a8   Data         192  main.o(.bss)
    TASK2_TASK_STK                           0x20020768   Data         512  main.o(.bss)
    GPS_SEM                                  0x20020968   Data          40  main.o(.bss)
    Receive_data                             0x20020990   Data          10  usart.o(.bss)
    TxBuffer3                                0x2002099a   Data         400  usart.o(.bss)
    RxBuffer4                                0x20020b2a   Data         400  usart.o(.bss)
    TxBuffer1                                0x20020cba   Data         400  usart.o(.bss)
    UART2_Handler                            0x20020e4c   Data         112  usart.o(.bss)
    UART3_Handler                            0x20020ebc   Data         112  usart.o(.bss)
    UART7_Handler                            0x20020f2c   Data         112  usart.o(.bss)
    UART5_Handler                            0x20020f9c   Data         112  usart.o(.bss)
    SRAM_Handler                             0x2002100c   Data          76  lcd.o(.bss)
    lcddev                                   0x20021058   Data          14  lcd.o(.bss)
    LTDC_Handler                             0x20021068   Data         168  ltdc.o(.bss)
    DMA2D_Handler                            0x20021110   Data          88  ltdc.o(.bss)
    lcdltdc                                  0x20021168   Data          32  ltdc.o(.bss)
    SDRAM_Handler                            0x20021188   Data          52  sdram.o(.bss)
    star_run                                 0x200211bc   Data          12  gps.o(.bss)
    star_info                                0x200211c8   Data          96  gps.o(.bss)
    star_info_t                              0x20021228   Data          96  gps.o(.bss)
    CPU_Name                                 0x20021288   Data          16  cpu_core.o(.bss)
    OSCfg_IdleTaskStk                        0x20021298   Data         512  os_cfg_app.o(.bss)
    OSCfg_ISRStk                             0x20021498   Data         400  os_cfg_app.o(.bss)
    OSCfg_MsgPool                            0x20021628   Data        1600  os_cfg_app.o(.bss)
    OSCfg_StatTaskStk                        0x20021c68   Data         400  os_cfg_app.o(.bss)
    OSCfg_TickTaskStk                        0x20021df8   Data         512  os_cfg_app.o(.bss)
    OSCfg_TmrTaskStk                         0x20021ff8   Data         512  os_cfg_app.o(.bss)
    OSIdleTaskTCB                            0x200221f8   Data         192  os_var.o(.bss)
    OSMsgPool                                0x200222b8   Data          12  os_var.o(.bss)
    OSRdyList                                0x200222c4   Data         768  os_var.o(.bss)
    OSStatTaskTCB                            0x200225c4   Data         192  os_var.o(.bss)
    OSTickTaskTCB                            0x20022684   Data         192  os_var.o(.bss)
    OSTmrMutex                               0x20022744   Data          48  os_var.o(.bss)
    OSTmrTaskTCB                             0x20022774   Data         192  os_var.o(.bss)
    __libspace_start                         0x20022834   Data          96  libspace.o(.bss)
    __temporary_stack_top$libspace           0x20022894   Data           0  libspace.o(.bss)
    ltdc_lcd_framebuf                        0xc0000000   Data       2048000  ltdc.o(.ARM.__AT_0xC0000000)



==============================================================================

Memory Map of the image

  Image Entry point : 0x080001f9

  Load Region LR_IROM1 (Base: 0x08000000, Size: 0x0000faec, Max: 0x00100000, ABSOLUTE)

    Execution Region ER_IROM1 (Exec base: 0x08000000, Load base: 0x08000000, Size: 0x0000f9c4, Max: 0x00100000, ABSOLUTE)

    Exec Addr    Load Addr    Size         Type   Attr      Idx    E Section Name        Object

    0x08000000   0x08000000   0x000001f8   Data   RO          603    RESET               startup_stm32f767xx.o
    0x080001f8   0x080001f8   0x00000008   Code   RO         5550  * !!!main             c_w.l(__main.o)
    0x08000200   0x08000200   0x00000034   Code   RO         5738    !!!scatter          c_w.l(__scatter.o)
    0x08000234   0x08000234   0x0000001a   Code   RO         5740    !!handler_copy      c_w.l(__scatter_copy.o)
    0x0800024e   0x0800024e   0x00000002   PAD
    0x08000250   0x08000250   0x0000001c   Code   RO         5742    !!handler_zi        c_w.l(__scatter_zi.o)
    0x0800026c   0x0800026c   0x00000002   Code   RO         5613    .ARM.Collect$$libinit$$00000000  c_w.l(libinit.o)
    0x0800026e   0x0800026e   0x00000004   Code   RO         5624    .ARM.Collect$$libinit$$00000001  c_w.l(libinit2.o)
    0x08000272   0x08000272   0x00000000   Code   RO         5627    .ARM.Collect$$libinit$$00000004  c_w.l(libinit2.o)
    0x08000272   0x08000272   0x00000000   Code   RO         5630    .ARM.Collect$$libinit$$0000000A  c_w.l(libinit2.o)
    0x08000272   0x08000272   0x00000000   Code   RO         5632    .ARM.Collect$$libinit$$0000000C  c_w.l(libinit2.o)
    0x08000272   0x08000272   0x00000000   Code   RO         5634    .ARM.Collect$$libinit$$0000000E  c_w.l(libinit2.o)
    0x08000272   0x08000272   0x00000006   Code   RO         5635    .ARM.Collect$$libinit$$0000000F  c_w.l(libinit2.o)
    0x08000278   0x08000278   0x00000000   Code   RO         5637    .ARM.Collect$$libinit$$00000011  c_w.l(libinit2.o)
    0x08000278   0x08000278   0x0000000c   Code   RO         5638    .ARM.Collect$$libinit$$00000012  c_w.l(libinit2.o)
    0x08000284   0x08000284   0x00000000   Code   RO         5639    .ARM.Collect$$libinit$$00000013  c_w.l(libinit2.o)
    0x08000284   0x08000284   0x00000000   Code   RO         5641    .ARM.Collect$$libinit$$00000015  c_w.l(libinit2.o)
    0x08000284   0x08000284   0x00000000   Code   RO         5643    .ARM.Collect$$libinit$$00000017  c_w.l(libinit2.o)
    0x08000284   0x08000284   0x00000000   Code   RO         5645    .ARM.Collect$$libinit$$00000019  c_w.l(libinit2.o)
    0x08000284   0x08000284   0x00000000   Code   RO         5647    .ARM.Collect$$libinit$$0000001B  c_w.l(libinit2.o)
    0x08000284   0x08000284   0x00000000   Code   RO         5649    .ARM.Collect$$libinit$$0000001D  c_w.l(libinit2.o)
    0x08000284   0x08000284   0x00000000   Code   RO         5651    .ARM.Collect$$libinit$$0000001F  c_w.l(libinit2.o)
    0x08000284   0x08000284   0x00000000   Code   RO         5653    .ARM.Collect$$libinit$$00000021  c_w.l(libinit2.o)
    0x08000284   0x08000284   0x00000000   Code   RO         5655    .ARM.Collect$$libinit$$00000023  c_w.l(libinit2.o)
    0x08000284   0x08000284   0x00000000   Code   RO         5657    .ARM.Collect$$libinit$$00000025  c_w.l(libinit2.o)
    0x08000284   0x08000284   0x00000000   Code   RO         5661    .ARM.Collect$$libinit$$0000002C  c_w.l(libinit2.o)
    0x08000284   0x08000284   0x00000000   Code   RO         5663    .ARM.Collect$$libinit$$0000002E  c_w.l(libinit2.o)
    0x08000284   0x08000284   0x00000000   Code   RO         5665    .ARM.Collect$$libinit$$00000030  c_w.l(libinit2.o)
    0x08000284   0x08000284   0x00000000   Code   RO         5667    .ARM.Collect$$libinit$$00000032  c_w.l(libinit2.o)
    0x08000284   0x08000284   0x00000002   Code   RO         5668    .ARM.Collect$$libinit$$00000033  c_w.l(libinit2.o)
    0x08000286   0x08000286   0x00000002   Code   RO         5694    .ARM.Collect$$libshutdown$$00000000  c_w.l(libshutdown.o)
    0x08000288   0x08000288   0x00000000   Code   RO         5721    .ARM.Collect$$libshutdown$$00000002  c_w.l(libshutdown2.o)
    0x08000288   0x08000288   0x00000000   Code   RO         5723    .ARM.Collect$$libshutdown$$00000004  c_w.l(libshutdown2.o)
    0x08000288   0x08000288   0x00000000   Code   RO         5726    .ARM.Collect$$libshutdown$$00000007  c_w.l(libshutdown2.o)
    0x08000288   0x08000288   0x00000000   Code   RO         5729    .ARM.Collect$$libshutdown$$0000000A  c_w.l(libshutdown2.o)
    0x08000288   0x08000288   0x00000000   Code   RO         5731    .ARM.Collect$$libshutdown$$0000000C  c_w.l(libshutdown2.o)
    0x08000288   0x08000288   0x00000000   Code   RO         5734    .ARM.Collect$$libshutdown$$0000000F  c_w.l(libshutdown2.o)
    0x08000288   0x08000288   0x00000002   Code   RO         5735    .ARM.Collect$$libshutdown$$00000010  c_w.l(libshutdown2.o)
    0x0800028a   0x0800028a   0x00000000   Code   RO         5554    .ARM.Collect$$rtentry$$00000000  c_w.l(__rtentry.o)
    0x0800028a   0x0800028a   0x00000000   Code   RO         5570    .ARM.Collect$$rtentry$$00000002  c_w.l(__rtentry2.o)
    0x0800028a   0x0800028a   0x00000006   Code   RO         5582    .ARM.Collect$$rtentry$$00000004  c_w.l(__rtentry4.o)
    0x08000290   0x08000290   0x00000000   Code   RO         5572    .ARM.Collect$$rtentry$$00000009  c_w.l(__rtentry2.o)
    0x08000290   0x08000290   0x00000004   Code   RO         5573    .ARM.Collect$$rtentry$$0000000A  c_w.l(__rtentry2.o)
    0x08000294   0x08000294   0x00000000   Code   RO         5575    .ARM.Collect$$rtentry$$0000000C  c_w.l(__rtentry2.o)
    0x08000294   0x08000294   0x00000008   Code   RO         5576    .ARM.Collect$$rtentry$$0000000D  c_w.l(__rtentry2.o)
    0x0800029c   0x0800029c   0x00000002   Code   RO         5614    .ARM.Collect$$rtexit$$00000000  c_w.l(rtexit.o)
    0x0800029e   0x0800029e   0x00000000   Code   RO         5670    .ARM.Collect$$rtexit$$00000002  c_w.l(rtexit2.o)
    0x0800029e   0x0800029e   0x00000004   Code   RO         5671    .ARM.Collect$$rtexit$$00000003  c_w.l(rtexit2.o)
    0x080002a2   0x080002a2   0x00000006   Code   RO         5672    .ARM.Collect$$rtexit$$00000004  c_w.l(rtexit2.o)
    0x080002a8   0x080002a8   0x00000068   Code   RO          604    .text               startup_stm32f767xx.o
    0x08000310   0x08000310   0x00000034   Code   RO         3833    .text               cpu_a.o
    0x08000344   0x08000344   0x00000002   Code   RO         5540    .text               c_w.l(use_no_semi_2.o)
    0x08000346   0x08000346   0x0000001a   Code   RO         5544    .text               c_w.l(atoi.o)
    0x08000360   0x08000360   0x00000064   Code   RO         5546    .text               c_w.l(rt_memcpy_w.o)
    0x080003c4   0x080003c4   0x00000006   Code   RO         5548    .text               c_w.l(heapauxi.o)
    0x080003ca   0x080003ca   0x00000002   Code   RO         5552    .text               c_w.l(use_no_semi.o)
    0x080003cc   0x080003cc   0x00000008   Code   RO         5562    .text               c_w.l(rt_errno_addr_intlibspace.o)
    0x080003d4   0x080003d4   0x00000070   Code   RO         5564    .text               c_w.l(strtol.o)
    0x08000444   0x08000444   0x00000008   Code   RO         5566    .text               c_w.l(libspace.o)
    0x0800044c   0x0800044c   0x00000010   Code   RO         5584    .text               c_w.l(rt_ctype_table.o)
    0x0800045c   0x0800045c   0x0000009e   Code   RO         5588    .text               c_w.l(_strtoul.o)
    0x080004fa   0x080004fa   0x0000004a   Code   RO         5590    .text               c_w.l(sys_stackheap_outer.o)
    0x08000544   0x08000544   0x00000008   Code   RO         5595    .text               c_w.l(rt_locale_intlibspace.o)
    0x0800054c   0x0800054c   0x0000001c   Code   RO         5597    .text               c_w.l(_chval.o)
    0x08000568   0x08000568   0x00000012   Code   RO         5602    .text               c_w.l(exit.o)
    0x0800057a   0x0800057a   0x00000002   PAD
    0x0800057c   0x0800057c   0x00000068   Code   RO         5622    .text               c_w.l(strcmpv7m_pel.o)
    0x080005e4   0x080005e4   0x00000118   Code   RO         5454    CODE                os_cpu_a.o
    0x080006fc   0x080006fc   0x0000000c   Code   RO         3561    i.BSP_CPU_ClkFreq   bsp.o
    0x08000708   0x08000708   0x00000004   Code   RO          382    i.BusFault_Handler  stm32f7xx_it.o
    0x0800070c   0x0800070c   0x00000010   Code   RO         3669    i.CPU_Init          cpu_core.o
    0x0800071c   0x0800071c   0x00000084   Code   RO         3670    i.CPU_IntDisMeasInit  cpu_core.o
    0x080007a0   0x080007a0   0x0000001c   Code   RO         3671    i.CPU_IntDisMeasMaxCalc  cpu_core.o
    0x080007bc   0x080007bc   0x0000002c   Code   RO         3672    i.CPU_IntDisMeasMaxCurGet  cpu_core.o
    0x080007e8   0x080007e8   0x0000002c   Code   RO         3673    i.CPU_IntDisMeasMaxCurReset  cpu_core.o
    0x08000814   0x08000814   0x0000002c   Code   RO         3674    i.CPU_IntDisMeasMaxGet  cpu_core.o
    0x08000840   0x08000840   0x00000034   Code   RO         3675    i.CPU_IntDisMeasStart  cpu_core.o
    0x08000874   0x08000874   0x00000054   Code   RO         3676    i.CPU_IntDisMeasStop  cpu_core.o
    0x080008c8   0x080008c8   0x00000038   Code   RO         3677    i.CPU_NameClr       cpu_core.o
    0x08000900   0x08000900   0x00000008   Code   RO         3679    i.CPU_NameInit      cpu_core.o
    0x08000908   0x08000908   0x00000014   Code   RO         3684    i.CPU_TS_Init       cpu_core.o
    0x0800091c   0x0800091c   0x0000000c   Code   RO         3686    i.CPU_TS_TmrFreqSet  cpu_core.o
    0x08000928   0x08000928   0x00000034   Code   RO         3563    i.CPU_TS_TmrInit    bsp.o
    0x0800095c   0x0800095c   0x0000000c   Code   RO         3564    i.CPU_TS_TmrRd      bsp.o
    0x08000968   0x08000968   0x00000068   Code   RO         2779    i.Cache_Enable      sys.o
    0x080009d0   0x080009d0   0x00000002   Code   RO          383    i.DebugMon_Handler  stm32f7xx_it.o
    0x080009d2   0x080009d2   0x00000002   PAD
    0x080009d4   0x080009d4   0x00000048   Code   RO         2418    i.FMC_NORSRAM_Extended_Timing_Init  stm32f7xx_ll_fmc.o
    0x08000a1c   0x08000a1c   0x00000080   Code   RO         2419    i.FMC_NORSRAM_Init  stm32f7xx_ll_fmc.o
    0x08000a9c   0x08000a9c   0x0000005e   Code   RO         2420    i.FMC_NORSRAM_Timing_Init  stm32f7xx_ll_fmc.o
    0x08000afa   0x08000afa   0x00000074   Code   RO         2425    i.FMC_SDRAM_Init    stm32f7xx_ll_fmc.o
    0x08000b6e   0x08000b6e   0x0000000e   Code   RO         2426    i.FMC_SDRAM_ProgramRefreshRate  stm32f7xx_ll_fmc.o
    0x08000b7c   0x08000b7c   0x00000052   Code   RO         2427    i.FMC_SDRAM_SendCommand  stm32f7xx_ll_fmc.o
    0x08000bce   0x08000bce   0x00000002   PAD
    0x08000bd0   0x08000bd0   0x0000009c   Code   RO         2429    i.FMC_SDRAM_Timing_Init  stm32f7xx_ll_fmc.o
    0x08000c6c   0x08000c6c   0x00000064   Code   RO         3510    i.GPGGA_DAT         gps.o
    0x08000cd0   0x08000cd0   0x000000c8   Code   RO         3511    i.GPGSA_DAT         gps.o
    0x08000d98   0x08000d98   0x00000224   Code   RO         3512    i.GPGSV_DAT         gps.o
    0x08000fbc   0x08000fbc   0x000003e0   Code   RO         3513    i.GPRMC_DAT         gps.o
    0x0800139c   0x0800139c   0x00000158   Code   RO            4    i.GPS_task          main.o
    0x080014f4   0x080014f4   0x00000218   Code   RO         1060    i.HAL_GPIO_Init     stm32f7xx_hal_gpio.o
    0x0800170c   0x0800170c   0x00000010   Code   RO         1062    i.HAL_GPIO_ReadPin  stm32f7xx_hal_gpio.o
    0x0800171c   0x0800171c   0x00000008   Code   RO         1063    i.HAL_GPIO_TogglePin  stm32f7xx_hal_gpio.o
    0x08001724   0x08001724   0x0000000c   Code   RO         1064    i.HAL_GPIO_WritePin  stm32f7xx_hal_gpio.o
    0x08001730   0x08001730   0x0000000c   Code   RO          628    i.HAL_GetTick       stm32f7xx_hal.o
    0x0800173c   0x0800173c   0x00000010   Code   RO          629    i.HAL_IncTick       stm32f7xx_hal.o
    0x0800174c   0x0800174c   0x00000028   Code   RO          630    i.HAL_Init          stm32f7xx_hal.o
    0x08001774   0x08001774   0x00000028   Code   RO          631    i.HAL_InitTick      stm32f7xx_hal.o
    0x0800179c   0x0800179c   0x0000005e   Code   RO         2018    i.HAL_LTDC_ConfigLayer  stm32f7xx_hal_ltdc.o
    0x080017fa   0x080017fa   0x00000002   PAD
    0x080017fc   0x080017fc   0x00000128   Code   RO         2035    i.HAL_LTDC_Init     stm32f7xx_hal_ltdc.o
    0x08001924   0x08001924   0x00000140   Code   RO         3219    i.HAL_LTDC_MspInit  ltdc.o
    0x08001a64   0x08001a64   0x0000006c   Code   RO         2050    i.HAL_LTDC_SetWindowPosition  stm32f7xx_hal_ltdc.o
    0x08001ad0   0x08001ad0   0x00000074   Code   RO         2052    i.HAL_LTDC_SetWindowSize  stm32f7xx_hal_ltdc.o
    0x08001b44   0x08001b44   0x0000005c   Code   RO          782    i.HAL_MPU_ConfigRegion  stm32f7xx_hal_cortex.o
    0x08001ba0   0x08001ba0   0x00000002   Code   RO          633    i.HAL_MspInit       stm32f7xx_hal.o
    0x08001ba2   0x08001ba2   0x0000001a   Code   RO          785    i.HAL_NVIC_EnableIRQ  stm32f7xx_hal_cortex.o
    0x08001bbc   0x08001bbc   0x0000007c   Code   RO          791    i.HAL_NVIC_SetPriority  stm32f7xx_hal_cortex.o
    0x08001c38   0x08001c38   0x00000028   Code   RO          792    i.HAL_NVIC_SetPriorityGrouping  stm32f7xx_hal_cortex.o
    0x08001c60   0x08001c60   0x00000090   Code   RO         1253    i.HAL_PWREx_EnableOverDrive  stm32f7xx_hal_pwr_ex.o
    0x08001cf0   0x08001cf0   0x00000980   Code   RO         1443    i.HAL_RCCEx_PeriphCLKConfig  stm32f7xx_hal_rcc_ex.o
    0x08002670   0x08002670   0x000001b4   Code   RO         1340    i.HAL_RCC_ClockConfig  stm32f7xx_hal_rcc.o
    0x08002824   0x08002824   0x0000000c   Code   RO         1345    i.HAL_RCC_GetHCLKFreq  stm32f7xx_hal_rcc.o
    0x08002830   0x08002830   0x0000002c   Code   RO         1347    i.HAL_RCC_GetPCLK1Freq  stm32f7xx_hal_rcc.o
    0x0800285c   0x0800285c   0x0000002c   Code   RO         1348    i.HAL_RCC_GetPCLK2Freq  stm32f7xx_hal_rcc.o
    0x08002888   0x08002888   0x000000b4   Code   RO         1349    i.HAL_RCC_GetSysClockFreq  stm32f7xx_hal_rcc.o
    0x0800293c   0x0800293c   0x000004d0   Code   RO         1444    i.HAL_RCC_OscConfig  stm32f7xx_hal_rcc_ex.o
    0x08002e0c   0x08002e0c   0x00000040   Code   RO         2566    i.HAL_SDRAM_Init    stm32f7xx_hal_sdram.o
    0x08002e4c   0x08002e4c   0x0000011c   Code   RO         3337    i.HAL_SDRAM_MspInit  sdram.o
    0x08002f68   0x08002f68   0x00000028   Code   RO         2569    i.HAL_SDRAM_ProgramRefreshRate  stm32f7xx_hal_sdram.o
    0x08002f90   0x08002f90   0x0000003a   Code   RO         2575    i.HAL_SDRAM_SendCommand  stm32f7xx_hal_sdram.o
    0x08002fca   0x08002fca   0x00000058   Code   RO         2294    i.HAL_SRAM_Init     stm32f7xx_hal_sram.o
    0x08003022   0x08003022   0x00000002   PAD
    0x08003024   0x08003024   0x00000098   Code   RO         2985    i.HAL_SRAM_MspInit  lcd.o
    0x080030bc   0x080030bc   0x00000028   Code   RO          794    i.HAL_SYSTICK_CLKSourceConfig  stm32f7xx_hal_cortex.o
    0x080030e4   0x080030e4   0x00000034   Code   RO          796    i.HAL_SYSTICK_Config  stm32f7xx_hal_cortex.o
    0x08003118   0x08003118   0x00000078   Code   RO         1502    i.HAL_UART_Init     stm32f7xx_hal_uart.o
    0x08003190   0x08003190   0x0000013c   Code   RO         2834    i.HAL_UART_MspInit  usart.o
    0x080032cc   0x080032cc   0x00000112   Code   RO         1505    i.HAL_UART_Receive  stm32f7xx_hal_uart.o
    0x080033de   0x080033de   0x000000c6   Code   RO         1510    i.HAL_UART_Transmit  stm32f7xx_hal_uart.o
    0x080034a4   0x080034a4   0x00000004   Code   RO          384    i.HardFault_Handler  stm32f7xx_it.o
    0x080034a8   0x080034a8   0x00000048   Code   RO         2987    i.LCD_Clear         lcd.o
    0x080034f0   0x080034f0   0x00000180   Code   RO         2991    i.LCD_Display_Dir   lcd.o
    0x08003670   0x08003670   0x00000124   Code   RO         2996    i.LCD_Fast_DrawPoint  lcd.o
    0x08003794   0x08003794   0x00002474   Code   RO         2998    i.LCD_Init          lcd.o
    0x08005c08   0x08005c08   0x00000084   Code   RO         2999    i.LCD_MPU_Config    lcd.o
    0x08005c8c   0x08005c8c   0x00000016   Code   RO         3000    i.LCD_Pow           lcd.o
    0x08005ca2   0x08005ca2   0x00000002   PAD
    0x08005ca4   0x08005ca4   0x00000014   Code   RO         3001    i.LCD_RD_DATA       lcd.o
    0x08005cb8   0x08005cb8   0x00000050   Code   RO         3004    i.LCD_SSD_BackLightSet  lcd.o
    0x08005d08   0x08005d08   0x00000274   Code   RO         3005    i.LCD_Scan_Dir      lcd.o
    0x08005f7c   0x08005f7c   0x00000138   Code   RO         3006    i.LCD_SetCursor     lcd.o
    0x080060b4   0x080060b4   0x0000013c   Code   RO         3008    i.LCD_ShowChar      lcd.o
    0x080061f0   0x080061f0   0x00000094   Code   RO         3009    i.LCD_ShowNum       lcd.o
    0x08006284   0x08006284   0x00000066   Code   RO         3010    i.LCD_ShowString    lcd.o
    0x080062ea   0x080062ea   0x000000be   Code   RO         3011    i.LCD_ShowxNum      lcd.o
    0x080063a8   0x080063a8   0x00000018   Code   RO         3012    i.LCD_WR_DATA       lcd.o
    0x080063c0   0x080063c0   0x00000018   Code   RO         3013    i.LCD_WR_REG        lcd.o
    0x080063d8   0x080063d8   0x00000014   Code   RO         3015    i.LCD_WriteRAM_Prepare  lcd.o
    0x080063ec   0x080063ec   0x00000010   Code   RO         3016    i.LCD_WriteReg      lcd.o
    0x080063fc   0x080063fc   0x00000058   Code   RO         2927    i.LED_Init          led.o
    0x08006454   0x08006454   0x00000024   Code   RO         3220    i.LTDC_Clear        ltdc.o
    0x08006478   0x08006478   0x00000026   Code   RO         3221    i.LTDC_Clk_Set      ltdc.o
    0x0800649e   0x0800649e   0x00000002   PAD
    0x080064a0   0x080064a0   0x0000002c   Code   RO         3223    i.LTDC_Display_Dir  ltdc.o
    0x080064cc   0x080064cc   0x00000050   Code   RO         3224    i.LTDC_Draw_Point   ltdc.o
    0x0800651c   0x0800651c   0x00000148   Code   RO         3225    i.LTDC_Fill         ltdc.o
    0x08006664   0x08006664   0x00000234   Code   RO         3226    i.LTDC_Init         ltdc.o
    0x08006898   0x08006898   0x0000007c   Code   RO         3227    i.LTDC_Layer_Parameter_Config  ltdc.o
    0x08006914   0x08006914   0x00000030   Code   RO         3229    i.LTDC_Layer_Window_Config  ltdc.o
    0x08006944   0x08006944   0x000000c8   Code   RO         3230    i.LTDC_PanelID_Read  ltdc.o
    0x08006a0c   0x08006a0c   0x0000000c   Code   RO         3232    i.LTDC_Select_Layer  ltdc.o
    0x08006a18   0x08006a18   0x00000212   Code   RO         2054    i.LTDC_SetConfig    stm32f7xx_hal_ltdc.o
    0x08006c2a   0x08006c2a   0x00000012   Code   RO         4130    i.Mem_Clr           lib_mem.o
    0x08006c3c   0x08006c3c   0x00000054   Code   RO         4157    i.Mem_Set           lib_mem.o
    0x08006c90   0x08006c90   0x00000002   Code   RO          385    i.NMI_Handler       stm32f7xx_it.o
    0x08006c92   0x08006c92   0x00000002   PAD
    0x08006c94   0x08006c94   0x00000010   Code   RO          798    i.NVIC_GetPriorityGrouping  stm32f7xx_hal_cortex.o
    0x08006ca4   0x08006ca4   0x00000028   Code   RO          799    i.NVIC_SetPriority  stm32f7xx_hal_cortex.o
    0x08006ccc   0x08006ccc   0x00000002   Code   RO         4312    i.OSCfg_Init        os_cfg_app.o
    0x08006cce   0x08006cce   0x00000002   PAD
    0x08006cd0   0x08006cd0   0x00000014   Code   RO         5369    i.OSIdleTaskHook    os_cpu_c.o
    0x08006ce4   0x08006ce4   0x0000014c   Code   RO         4335    i.OSInit            os_core.o
    0x08006e30   0x08006e30   0x00000028   Code   RO         5370    i.OSInitHook        os_cpu_c.o
    0x08006e58   0x08006e58   0x0000002c   Code   RO         4336    i.OSIntEnter        os_core.o
    0x08006e84   0x08006e84   0x000000dc   Code   RO         4337    i.OSIntExit         os_core.o
    0x08006f60   0x08006f60   0x0000006c   Code   RO         4704    i.OSMutexCreate     os_mutex.o
    0x08006fcc   0x08006fcc   0x000001ec   Code   RO         4705    i.OSMutexPend       os_mutex.o
    0x080071b8   0x080071b8   0x0000017c   Code   RO         4706    i.OSMutexPost       os_mutex.o
    0x08007334   0x08007334   0x000000a4   Code   RO         4338    i.OSSched           os_core.o
    0x080073d8   0x080073d8   0x00000064   Code   RO         4339    i.OSSchedLock       os_core.o
    0x0800743c   0x0800743c   0x00000088   Code   RO         4340    i.OSSchedUnlock     os_core.o
    0x080074c4   0x080074c4   0x00000068   Code   RO         4915    i.OSSemCreate       os_sem.o
    0x0800752c   0x0800752c   0x00000188   Code   RO         4917    i.OSSemPend         os_sem.o
    0x080076b4   0x080076b4   0x0000003c   Code   RO         4919    i.OSSemPost         os_sem.o
    0x080076f0   0x080076f0   0x00000068   Code   RO         4341    i.OSStart           os_core.o
    0x08007758   0x08007758   0x00000148   Code   RO         4987    i.OSStatReset       os_stat.o
    0x080078a0   0x080078a0   0x00000100   Code   RO         4988    i.OSStatTaskCPUUsageInit  os_stat.o
    0x080079a0   0x080079a0   0x00000014   Code   RO         5371    i.OSStatTaskHook    os_cpu_c.o
    0x080079b4   0x080079b4   0x00000144   Code   RO         5018    i.OSTaskCreate      os_task.o
    0x08007af8   0x08007af8   0x00000018   Code   RO         5372    i.OSTaskCreateHook  os_cpu_c.o
    0x08007b10   0x08007b10   0x0000019c   Code   RO         5019    i.OSTaskDel         os_task.o
    0x08007cac   0x08007cac   0x00000018   Code   RO         5373    i.OSTaskDelHook     os_cpu_c.o
    0x08007cc4   0x08007cc4   0x00000036   Code   RO         5027    i.OSTaskResume      os_task.o
    0x08007cfa   0x08007cfa   0x00000002   PAD
    0x08007cfc   0x08007cfc   0x00000018   Code   RO         5374    i.OSTaskReturnHook  os_cpu_c.o
    0x08007d14   0x08007d14   0x000001c8   Code   RO         5028    i.OSTaskSemPend     os_task.o
    0x08007edc   0x08007edc   0x00000024   Code   RO         5030    i.OSTaskSemPost     os_task.o
    0x08007f00   0x08007f00   0x000000bc   Code   RO         5032    i.OSTaskStkChk      os_task.o
    0x08007fbc   0x08007fbc   0x000002c4   Code   RO         5375    i.OSTaskStkInit     os_cpu_c.o
    0x08008280   0x08008280   0x00000024   Code   RO         5033    i.OSTaskSuspend     os_task.o
    0x080082a4   0x080082a4   0x000000ac   Code   RO         5376    i.OSTaskSwHook      os_cpu_c.o
    0x08008350   0x08008350   0x000000b0   Code   RO         5231    i.OSTimeDly         os_time.o
    0x08008400   0x08008400   0x00000114   Code   RO         5232    i.OSTimeDlyHMSM     os_time.o
    0x08008514   0x08008514   0x00000044   Code   RO         5235    i.OSTimeTick        os_time.o
    0x08008558   0x08008558   0x00000014   Code   RO         5377    i.OSTimeTickHook    os_cpu_c.o
    0x0800856c   0x0800856c   0x000001a8   Code   RO         4539    i.OS_Dbg_Init       os_dbg.o
    0x08008714   0x08008714   0x00000018   Code   RO         4562    i.OS_FlagInit       os_flag.o
    0x0800872c   0x0800872c   0x0000004c   Code   RO         4343    i.OS_IdleTask       os_core.o
    0x08008778   0x08008778   0x00000070   Code   RO         4344    i.OS_IdleTaskInit   os_core.o
    0x080087e8   0x080087e8   0x00000018   Code   RO         4636    i.OS_MemInit        os_mem.o
    0x08008800   0x08008800   0x0000005c   Code   RO         4668    i.OS_MsgPoolInit    os_msg.o
    0x0800885c   0x0800885c   0x00000044   Code   RO         4669    i.OS_MsgQFreeAll    os_msg.o
    0x080088a0   0x080088a0   0x0000000e   Code   RO         4671    i.OS_MsgQInit       os_msg.o
    0x080088ae   0x080088ae   0x00000002   PAD
    0x080088b0   0x080088b0   0x00000030   Code   RO         4708    i.OS_MutexDbgListAdd  os_mutex.o
    0x080088e0   0x080088e0   0x00000008   Code   RO         4710    i.OS_MutexGrpAdd    os_mutex.o
    0x080088e8   0x080088e8   0x00000060   Code   RO         4711    i.OS_MutexGrpPostAll  os_mutex.o
    0x08008948   0x08008948   0x0000002c   Code   RO         4712    i.OS_MutexGrpPrioFindHighest  os_mutex.o
    0x08008974   0x08008974   0x0000001c   Code   RO         4713    i.OS_MutexGrpRemove  os_mutex.o
    0x08008990   0x08008990   0x00000018   Code   RO         4714    i.OS_MutexInit      os_mutex.o
    0x080089a8   0x080089a8   0x00000068   Code   RO         4345    i.OS_Pend           os_core.o
    0x08008a10   0x08008a10   0x00000028   Code   RO         4348    i.OS_PendDataInit   os_core.o
    0x08008a38   0x08008a38   0x0000005c   Code   RO         4349    i.OS_PendDbgNameAdd  os_core.o
    0x08008a94   0x08008a94   0x00000024   Code   RO         4350    i.OS_PendDbgNameRemove  os_core.o
    0x08008ab8   0x08008ab8   0x0000003a   Code   RO         4351    i.OS_PendListChangePrio  os_core.o
    0x08008af2   0x08008af2   0x0000000a   Code   RO         4352    i.OS_PendListInit   os_core.o
    0x08008afc   0x08008afc   0x00000066   Code   RO         4354    i.OS_PendListInsertPrio  os_core.o
    0x08008b62   0x08008b62   0x00000034   Code   RO         4355    i.OS_PendListRemove  os_core.o
    0x08008b96   0x08008b96   0x00000042   Code   RO         4356    i.OS_PendListRemove1  os_core.o
    0x08008bd8   0x08008bd8   0x000000d6   Code   RO         4359    i.OS_Post           os_core.o
    0x08008cae   0x08008cae   0x0000002c   Code   RO         4360    i.OS_Post1          os_core.o
    0x08008cda   0x08008cda   0x00000002   PAD
    0x08008cdc   0x08008cdc   0x00000028   Code   RO         4806    i.OS_PrioGetHighest  os_prio.o
    0x08008d04   0x08008d04   0x00000018   Code   RO         4807    i.OS_PrioInit       os_prio.o
    0x08008d1c   0x08008d1c   0x00000024   Code   RO         4808    i.OS_PrioInsert     os_prio.o
    0x08008d40   0x08008d40   0x00000024   Code   RO         4809    i.OS_PrioRemove     os_prio.o
    0x08008d64   0x08008d64   0x00000018   Code   RO         4852    i.OS_QInit          os_q.o
    0x08008d7c   0x08008d7c   0x00000024   Code   RO         4361    i.OS_RdyListInit    os_core.o
    0x08008da0   0x08008da0   0x0000002c   Code   RO         4362    i.OS_RdyListInsert  os_core.o
    0x08008dcc   0x08008dcc   0x00000040   Code   RO         4363    i.OS_RdyListInsertHead  os_core.o
    0x08008e0c   0x08008e0c   0x0000003c   Code   RO         4364    i.OS_RdyListInsertTail  os_core.o
    0x08008e48   0x08008e48   0x0000005c   Code   RO         4366    i.OS_RdyListRemove  os_core.o
    0x08008ea4   0x08008ea4   0x00000030   Code   RO         4922    i.OS_SemDbgListAdd  os_sem.o
    0x08008ed4   0x08008ed4   0x00000018   Code   RO         4924    i.OS_SemInit        os_sem.o
    0x08008eec   0x08008eec   0x0000013e   Code   RO         4925    i.OS_SemPost        os_sem.o
    0x0800902a   0x0800902a   0x00000002   PAD
    0x0800902c   0x0800902c   0x00000324   Code   RO         4989    i.OS_StatTask       os_stat.o
    0x08009350   0x08009350   0x000000cc   Code   RO         4990    i.OS_StatTaskInit   os_stat.o
    0x0800941c   0x0800941c   0x0000002c   Code   RO         4367    i.OS_TaskBlock      os_core.o
    0x08009448   0x08009448   0x000000ec   Code   RO         5034    i.OS_TaskChangePrio  os_task.o
    0x08009534   0x08009534   0x00000030   Code   RO         5035    i.OS_TaskDbgListAdd  os_task.o
    0x08009564   0x08009564   0x00000044   Code   RO         5036    i.OS_TaskDbgListRemove  os_task.o
    0x080095a8   0x080095a8   0x00000020   Code   RO         5037    i.OS_TaskInit       os_task.o
    0x080095c8   0x080095c8   0x000000c4   Code   RO         5038    i.OS_TaskInitTCB    os_task.o
    0x0800968c   0x0800968c   0x0000011c   Code   RO         5040    i.OS_TaskResume     os_task.o
    0x080097a8   0x080097a8   0x00000018   Code   RO         5041    i.OS_TaskReturn     os_task.o
    0x080097c0   0x080097c0   0x000001f0   Code   RO         5042    i.OS_TaskSemPost    os_task.o
    0x080099b0   0x080099b0   0x00000138   Code   RO         5043    i.OS_TaskSuspend    os_task.o
    0x08009ae8   0x08009ae8   0x00000086   Code   RO         5185    i.OS_TickListInsert  os_tick.o
    0x08009b6e   0x08009b6e   0x00000002   PAD
    0x08009b70   0x08009b70   0x000000bc   Code   RO         5186    i.OS_TickListInsertDly  os_tick.o
    0x08009c2c   0x08009c2c   0x00000058   Code   RO         5187    i.OS_TickListRemove  os_tick.o
    0x08009c84   0x08009c84   0x000000a0   Code   RO         5188    i.OS_TickListUpdateDly  os_tick.o
    0x08009d24   0x08009d24   0x0000011c   Code   RO         5189    i.OS_TickListUpdateTimeout  os_tick.o
    0x08009e40   0x08009e40   0x0000006c   Code   RO         5190    i.OS_TickTask       os_tick.o
    0x08009eac   0x08009eac   0x000000c8   Code   RO         5191    i.OS_TickTaskInit   os_tick.o
    0x08009f74   0x08009f74   0x00000134   Code   RO         5276    i.OS_TmrInit        os_tmr.o
    0x0800a0a8   0x0800a0a8   0x00000018   Code   RO         5277    i.OS_TmrLock        os_tmr.o
    0x0800a0c0   0x0800a0c0   0x00000094   Code   RO         5278    i.OS_TmrTask        os_tmr.o
    0x0800a154   0x0800a154   0x00000044   Code   RO         5279    i.OS_TmrUnlink      os_tmr.o
    0x0800a198   0x0800a198   0x00000014   Code   RO         5280    i.OS_TmrUnlock      os_tmr.o
    0x0800a1ac   0x0800a1ac   0x0000009c   Code   RO         2782    i.SCB_EnableDCache  sys.o
    0x0800a248   0x0800a248   0x000000ac   Code   RO         3338    i.SDRAM_Init        sdram.o
    0x0800a2f4   0x0800a2f4   0x00000048   Code   RO         3339    i.SDRAM_Send_Cmd    sdram.o
    0x0800a33c   0x0800a33c   0x00000002   Code   RO          386    i.SVC_Handler       stm32f7xx_it.o
    0x0800a33e   0x0800a33e   0x00000002   PAD
    0x0800a340   0x0800a340   0x000000b4   Code   RO         2783    i.Stm32_Clock_Init  sys.o
    0x0800a3f4   0x0800a3f4   0x00000020   Code   RO         2716    i.SysTick_Handler   delay.o
    0x0800a414   0x0800a414   0x00000064   Code   RO          447    i.SystemInit        system_stm32f7xx.o
    0x0800a478   0x0800a478   0x00000088   Code   RO         2835    i.UART7_IRQHandler  usart.o
    0x0800a500   0x0800a500   0x000000ea   Code   RO         1515    i.UART_AdvFeatureConfig  stm32f7xx_hal_uart.o
    0x0800a5ea   0x0800a5ea   0x00000074   Code   RO         1516    i.UART_CheckIdleState  stm32f7xx_hal_uart.o
    0x0800a65e   0x0800a65e   0x00000002   PAD
    0x0800a660   0x0800a660   0x0000038c   Code   RO         1527    i.UART_SetConfig    stm32f7xx_hal_uart.o
    0x0800a9ec   0x0800a9ec   0x0000006c   Code   RO         1529    i.UART_WaitOnFlagUntilTimeout  stm32f7xx_hal_uart.o
    0x0800aa58   0x0800aa58   0x000000d0   Code   RO         2836    i.USART2_IRQHandler  usart.o
    0x0800ab28   0x0800ab28   0x00000004   Code   RO          387    i.UsageFault_Handler  stm32f7xx_it.o
    0x0800ab2c   0x0800ab2c   0x00000004   Code   RO         2837    i._sys_exit         usart.o
    0x0800ab30   0x0800ab30   0x0000005c   Code   RO         2717    i.delay_init        delay.o
    0x0800ab8c   0x0800ab8c   0x00000050   Code   RO         2718    i.delay_ms          delay.o
    0x0800abdc   0x0800abdc   0x0000000a   Code   RO         2719    i.delay_osschedlock  delay.o
    0x0800abe6   0x0800abe6   0x0000000a   Code   RO         2720    i.delay_osschedunlock  delay.o
    0x0800abf0   0x0800abf0   0x00000010   Code   RO         2721    i.delay_ostimedly   delay.o
    0x0800ac00   0x0800ac00   0x00000058   Code   RO         2722    i.delay_us          delay.o
    0x0800ac58   0x0800ac58   0x00000110   Code   RO            5    i.main              main.o
    0x0800ad68   0x0800ad68   0x000000f0   Code   RO            6    i.start_task        main.o
    0x0800ae58   0x0800ae58   0x00000040   Code   RO            7    i.task2_task        main.o
    0x0800ae98   0x0800ae98   0x0000002c   Code   RO         2839    i.uart2_init        usart.o
    0x0800aec4   0x0800aec4   0x0000002c   Code   RO         2841    i.uart7_init        usart.o
    0x0800aef0   0x0800aef0   0x00000014   Code   RO         2842    i.uart_init         usart.o
    0x0800af04   0x0800af04   0x0000002c   Code   RO         5600    locale$$code        c_w.l(lc_ctype_c.o)
    0x0800af30   0x0800af30   0x0000000a   Code   RO         5682    x$fpl$fpinit        fz_wv.l(fpinit.o)
    0x0800af3a   0x0800af3a   0x00000018   Data   RO          448    .constdata          system_stm32f7xx.o
    0x0800af52   0x0800af52   0x00004740   Data   RO         3019    .constdata          lcd.o
    0x0800f692   0x0800f692   0x00000002   PAD
    0x0800f694   0x0800f694   0x00000094   Data   RO         4314    .constdata          os_cfg_app.o
    0x0800f728   0x0800f728   0x0000016c   Data   RO         4540    .constdata          os_dbg.o
    0x0800f894   0x0800f894   0x00000020   Data   RO         5736    Region$$Table       anon$$obj.o
    0x0800f8b4   0x0800f8b4   0x00000110   Data   RO         5599    locale$$data        c_w.l(lc_ctype_c.o)


    Execution Region RW_IRAM1 (Exec base: 0x20020000, Load base: 0x0800f9c4, Size: 0x00002e98, Max: 0x00060000, ABSOLUTE)

    Exec Addr    Load Addr    Size         Type   Attr      Idx    E Section Name        Object

    0x20020000   0x0800f9c4   0x00000004   Data   RW          449    .data               system_stm32f7xx.o
    0x20020004   0x0800f9c8   0x00000004   Data   RW          636    .data               stm32f7xx_hal.o
    0x20020008   0x0800f9cc   0x00000006   Data   RW         2723    .data               delay.o
    0x2002000e   0x0800f9d2   0x00000002   PAD
    0x20020010   0x0800f9d4   0x0000000c   Data   RW         2844    .data               usart.o
    0x2002001c   0x0800f9e0   0x00000008   Data   RW         3020    .data               lcd.o
    0x20020024   0x0800f9e8   0x00000008   Data   RW         3236    .data               ltdc.o
    0x2002002c   0x0800f9f0   0x00000016   Data   RW         3515    .data               gps.o
    0x20020042   0x0800fa06   0x00000002   PAD
    0x20020044   0x0800fa08   0x0000001c   Data   RW         3690    .data               cpu_core.o
    0x20020060   0x0800fa24   0x00000008   Data   RW         4810    .data               os_prio.o
    0x20020068   0x0800fa2c   0x000000bc   Data   RW         5356    .data               os_var.o
    0x20020124   0x0800fae8   0x00000004   Data   RW         5380    .data               os_cpu_c.o
    0x20020128        -       0x00000868   Zero   RW            8    .bss                main.o
    0x20020990        -       0x0000067c   Zero   RW         2843    .bss                usart.o
    0x2002100c        -       0x0000005a   Zero   RW         3018    .bss                lcd.o
    0x20021066   0x0800faec   0x00000002   PAD
    0x20021068        -       0x00000120   Zero   RW         3235    .bss                ltdc.o
    0x20021188        -       0x00000034   Zero   RW         3340    .bss                sdram.o
    0x200211bc        -       0x000000cc   Zero   RW         3514    .bss                gps.o
    0x20021288        -       0x00000010   Zero   RW         3688    .bss                cpu_core.o
    0x20021298        -       0x00000f60   Zero   RW         4313    .bss                os_cfg_app.o
    0x200221f8        -       0x0000063c   Zero   RW         5355    .bss                os_var.o
    0x20022834        -       0x00000060   Zero   RW         5567    .bss                c_w.l(libspace.o)
    0x20022894   0x0800faec   0x00000004   PAD
    0x20022898        -       0x00000200   Zero   RW          602    HEAP                startup_stm32f767xx.o
    0x20022a98        -       0x00000400   Zero   RW          601    STACK               startup_stm32f767xx.o



  Load Region LR$$.ARM.__AT_0xC0000000 (Base: 0xc0000000, Size: 0x00000000, Max: 0x001f4000, ABSOLUTE)

    Execution Region ER$$.ARM.__AT_0xC0000000 (Exec base: 0xc0000000, Load base: 0xc0000000, Size: 0x001f4000, Max: 0x001f4000, ABSOLUTE, UNINIT)

    Exec Addr    Load Addr    Size         Type   Attr      Idx    E Section Name        Object

    0xc0000000        -       0x001f4000   Zero   RW         3234    .ARM.__AT_0xC0000000  ltdc.o


==============================================================================

Image component sizes


      Code (inc. data)   RO Data    RW Data    ZI Data      Debug   Object Name

        76         14          0          0          0      11258   bsp.o
        52          0          0          0          0        348   cpu_a.o
       540         98          0         28         16       9564   cpu_core.o
       328         40          0          6          0       4297   delay.o
      1840        136          0         22        204       4470   gps.o
     12266        190      18240          8         90      28399   lcd.o
        88         10          0          0          0        903   led.o
       102          0          0          0          0      12916   lib_mem.o
      1794        124          0          8    2048288      10174   ltdc.o
       920        190          0          0       2152     469869   main.o
         2          0        148          0       3936      19225   os_cfg_app.o
      2446        316          0          0          0      18807   os_core.o
       280         14          0          0          0        440   os_cpu_a.o
      1052        156          0          4          0      25772   os_cpu_c.o
       424        278        364          0          0       4805   os_dbg.o
        24         10          0          0          0        922   os_flag.o
        24         10          0          0          0        921   os_mem.o
       174         18          0          0          0       2352   os_msg.o
      1228         56          0          0          0       7423   os_mutex.o
       136         16          0          8          0       3026   os_prio.o
        24         10          0          0          0        919   os_q.o
       946         48          0          0          0       5719   os_sem.o
      1592        196          0          0          0       4179   os_stat.o
      3202        154          0          0          0      14281   os_task.o
      1162         88          0          0          0       6131   os_tick.o
       520         40          0          0          0       2869   os_time.o
       568        142          0          0          0       3725   os_tmr.o
         0          0          0        188       1596      17794   os_var.o
       528         40          0          0         52       3074   sdram.o
       104         34        504          0       1536        860   startup_stm32f767xx.o
       110         20          0          4          0       3877   stm32f7xx_hal.o
       430         26          0          0          0      37640   stm32f7xx_hal_cortex.o
       572         52          0          0          0       3840   stm32f7xx_hal_gpio.o
      1144          6          0          0          0       4821   stm32f7xx_hal_ltdc.o
       144          8          0          0          0       1320   stm32f7xx_hal_pwr_ex.o
       716         50          0          0          0       4176   stm32f7xx_hal_rcc.o
      3664         32          0          0          0       3776   stm32f7xx_hal_rcc_ex.o
       162          0          0          0          0       2828   stm32f7xx_hal_sdram.o
        88          0          0          0          0       1252   stm32f7xx_hal_sram.o
      1958         50          0          0          0       6856   stm32f7xx_hal_uart.o
        18          0          0          0          0       2811   stm32f7xx_it.o
       662         14          0          0          0       6068   stm32f7xx_ll_fmc.o
       440         26          0          0          0      34073   sys.o
       100         18         24          4          0       1155   system_stm32f7xx.o
       772         94          0         12       1660       6843   usart.o

    ----------------------------------------------------------------------
     43452       2824      19314        296    2059532     816778   Object Totals
         0          0         32          0          0          0   (incl. Generated)
        30          0          2          4          2          0   (incl. Padding)

    ----------------------------------------------------------------------

      Code (inc. data)   RO Data    RW Data    ZI Data      Debug   Library Member Name

         8          0          0          0          0         68   __main.o
         0          0          0          0          0          0   __rtentry.o
        12          0          0          0          0          0   __rtentry2.o
         6          0          0          0          0          0   __rtentry4.o
        52          8          0          0          0          0   __scatter.o
        26          0          0          0          0          0   __scatter_copy.o
        28          0          0          0          0          0   __scatter_zi.o
        28          0          0          0          0         68   _chval.o
       158          0          0          0          0         92   _strtoul.o
        26          0          0          0          0         80   atoi.o
        18          0          0          0          0         80   exit.o
         6          0          0          0          0        152   heapauxi.o
        44         10        272          0          0         76   lc_ctype_c.o
         2          0          0          0          0          0   libinit.o
        24          0          0          0          0          0   libinit2.o
         2          0          0          0          0          0   libshutdown.o
         2          0          0          0          0          0   libshutdown2.o
         8          4          0          0         96         68   libspace.o
        16          4          0          0          0         76   rt_ctype_table.o
         8          4          0          0          0         68   rt_errno_addr_intlibspace.o
         8          4          0          0          0         68   rt_locale_intlibspace.o
       100          0          0          0          0         80   rt_memcpy_w.o
         2          0          0          0          0          0   rtexit.o
        10          0          0          0          0          0   rtexit2.o
       104          0          0          0          0         68   strcmpv7m_pel.o
       112          0          0          0          0         88   strtol.o
        74          0          0          0          0         80   sys_stackheap_outer.o
         2          0          0          0          0         68   use_no_semi.o
         2          0          0          0          0         68   use_no_semi_2.o
        10          0          0          0          0        116   fpinit.o

    ----------------------------------------------------------------------
       902         34        272          0        100       1464   Library Totals
         4          0          0          0          4          0   (incl. Padding)

    ----------------------------------------------------------------------

      Code (inc. data)   RO Data    RW Data    ZI Data      Debug   Library Name

       888         34        272          0         96       1348   c_w.l
        10          0          0          0          0        116   fz_wv.l

    ----------------------------------------------------------------------
       902         34        272          0        100       1464   Library Totals

    ----------------------------------------------------------------------

==============================================================================


      Code (inc. data)   RO Data    RW Data    ZI Data      Debug   

     44354       2858      19586        296    2059632     795766   Grand Totals
     44354       2858      19586        296    2059632     795766   ELF Image Totals
     44354       2858      19586        296          0          0   ROM Totals

==============================================================================

    Total RO  Size (Code + RO Data)                63940 (  62.44kB)
    Total RW  Size (RW Data + ZI Data)           2059928 (2011.65kB)
    Total ROM Size (Code + RO Data + RW Data)      64236 (  62.73kB)

==============================================================================

